

Microchip Technology PIC18 LITE Macro Assembler V1.11 build 48931 
                                                                                               Mon Jun 17 04:01:26 2013

HI-TECH Software Omniscient Code Generator (Lite mode) build 48931
     1  0000                     opt subtitle "HI-TECH Software Omniscient Code Generator (Lite mode) build 48931"
     2                           
     3                           opt pagewidth 120
     4                           
     5                           	opt lm
     6                           
     7                           	processor	18F25K50
     8  0000                     porta	equ	0F80h
     9  0000                     portb	equ	0F81h
    10  0000                     portc	equ	0F82h
    11  0000                     portd	equ	0F83h
    12  0000                     porte	equ	0F84h
    13  0000                     lata	equ	0F89h
    14  0000                     latb	equ	0F8Ah
    15  0000                     latc	equ	0F8Bh
    16  0000                     latd	equ	0F8Ch
    17  0000                     late	equ	0F8Dh
    18  0000                     trisa	equ	0F92h
    19  0000                     trisb	equ	0F93h
    20  0000                     trisc	equ	0F94h
    21  0000                     trisd	equ	0F95h
    22  0000                     trise	equ	0F96h
    23  0000                     pie1	equ	0F9Dh
    24  0000                     pir1	equ	0F9Eh
    25  0000                     ipr1	equ	0F9Fh
    26  0000                     pie2	equ	0FA0h
    27  0000                     pir2	equ	0FA1h
    28  0000                     ipr2	equ	0FA2h
    29  0000                     t3con	equ	0FB1h
    30  0000                     tmr3l	equ	0FB2h
    31  0000                     tmr3h	equ	0FB3h
    32  0000                     ccp1con	equ	0FBDh
    33  0000                     ccpr1l	equ	0FBEh
    34  0000                     ccpr1h	equ	0FBFh
    35  0000                     adcon1	equ	0FC1h
    36  0000                     adcon0	equ	0FC2h
    37  0000                     adresl	equ	0FC3h
    38  0000                     adresh	equ	0FC4h
    39  0000                     sspcon2	equ	0FC5h
    40  0000                     sspcon1	equ	0FC6h
    41  0000                     sspstat	equ	0FC7h
    42  0000                     sspadd	equ	0FC8h
    43  0000                     sspbuf	equ	0FC9h
    44  0000                     t2con	equ	0FCAh
    45  0000                     pr2	equ	0FCBh
    46  0000                     tmr2	equ	0FCCh
    47  0000                     t1con	equ	0FCDh
    48  0000                     tmr1l	equ	0FCEh
    49  0000                     tmr1h	equ	0FCFh
    50  0000                     rcon	equ	0FD0h
    51  0000                     wdtcon	equ	0FD1h
    52  0000                     lvdcon	equ	0FD2h
    53  0000                     osccon	equ	0FD3h
    54  0000                     t0con	equ	0FD5h
    55  0000                     tmr0l	equ	0FD6h
    56  0000                     tmr0h	equ	0FD7h
    57  0000                     status	equ	0FD8h
    58  0000                     fsr2	equ	0FD9h
    59  0000                     fsr2l	equ	0FD9h
    60  0000                     fsr2h	equ	0FDAh
    61  0000                     plusw2	equ	0FDBh
    62  0000                     preinc2	equ	0FDCh
    63  0000                     postdec2	equ	0FDDh
    64  0000                     postinc2	equ	0FDEh
    65  0000                     indf2	equ	0FDFh
    66  0000                     bsr	equ	0FE0h
    67  0000                     fsr1	equ	0FE1h
    68  0000                     fsr1l	equ	0FE1h
    69  0000                     fsr1h	equ	0FE2h
    70  0000                     plusw1	equ	0FE3h
    71  0000                     preinc1	equ	0FE4h
    72  0000                     postdec1	equ	0FE5h
    73  0000                     postinc1	equ	0FE6h
    74  0000                     indf1	equ	0FE7h
    75  0000                     wreg	equ	0FE8h
    76  0000                     fsr0	equ	0FE9h
    77  0000                     fsr0l	equ	0FE9h
    78  0000                     fsr0h	equ	0FEAh
    79  0000                     plusw0	equ	0FEBh
    80  0000                     preinc0	equ	0FECh
    81  0000                     postdec0	equ	0FEDh
    82  0000                     postinc0	equ	0FEEh
    83  0000                     indf0	equ	0FEFh
    84  0000                     intcon3	equ	0FF0h
    85  0000                     intcon2	equ	0FF1h
    86  0000                     intcon	equ	0FF2h
    87  0000                     prod	equ	0FF3h
    88  0000                     prodl	equ	0FF3h
    89  0000                     prodh	equ	0FF4h
    90  0000                     tablat	equ	0FF5h
    91  0000                     tblptr	equ	0FF6h
    92  0000                     tblptrl	equ	0FF6h
    93  0000                     tblptrh	equ	0FF7h
    94  0000                     tblptru	equ	0FF8h
    95  0000                     pcl	equ	0FF9h
    96  0000                     pclat	equ	0FFAh
    97  0000                     pclath	equ	0FFAh
    98  0000                     pclatu	equ	0FFBh
    99  0000                     stkptr	equ	0FFCh
   100  0000                     tosl	equ	0FFDh
   101  0000                     tosh	equ	0FFEh
   102  0000                     tosu	equ	0FFFh
   103                           skipnz macro
   104                           	btfsc	status,2
   105  0000                     	endm
   106                           	global	__ramtop
   107                           	global	__accesstop
   108                           # 46 "/opt/microchip/xc8/v1.11/include/pic18f25k50.h"
   109  0000                     SRCON1 equ 0F57h ;# 
   110                           # 107 "/opt/microchip/xc8/v1.11/include/pic18f25k50.h"
   111  0000                     SRCON0 equ 0F58h ;# 
   112                           # 177 "/opt/microchip/xc8/v1.11/include/pic18f25k50.h"
   113  0000                     CCPTMRS equ 0F59h ;# 
   114                           # 203 "/opt/microchip/xc8/v1.11/include/pic18f25k50.h"
   115  0000                     VREGCON equ 0F5Ah ;# 
   116                           # 222 "/opt/microchip/xc8/v1.11/include/pic18f25k50.h"
   117  0000                     ANSELA equ 0F5Bh ;# 
   118                           # 266 "/opt/microchip/xc8/v1.11/include/pic18f25k50.h"
   119  0000                     ANSELB equ 0F5Ch ;# 
   120                           # 315 "/opt/microchip/xc8/v1.11/include/pic18f25k50.h"
   121  0000                     ANSELC equ 0F5Dh ;# 
   122                           # 348 "/opt/microchip/xc8/v1.11/include/pic18f25k50.h"
   123  0000                     UCON equ 0F60h ;# 
   124                           # 398 "/opt/microchip/xc8/v1.11/include/pic18f25k50.h"
   125  0000                     USTAT equ 0F61h ;# 
   126                           # 457 "/opt/microchip/xc8/v1.11/include/pic18f25k50.h"
   127  0000                     UCFG equ 0F62h ;# 
   128                           # 538 "/opt/microchip/xc8/v1.11/include/pic18f25k50.h"
   129  0000                     UADDR equ 0F63h ;# 
   130                           # 601 "/opt/microchip/xc8/v1.11/include/pic18f25k50.h"
   131  0000                     UIE equ 0F64h ;# 
   132                           # 656 "/opt/microchip/xc8/v1.11/include/pic18f25k50.h"
   133  0000                     UIR equ 0F65h ;# 
   134                           # 711 "/opt/microchip/xc8/v1.11/include/pic18f25k50.h"
   135  0000                     UEIE equ 0F66h ;# 
   136                           # 761 "/opt/microchip/xc8/v1.11/include/pic18f25k50.h"
   137  0000                     UEIR equ 0F67h ;# 
   138                           # 811 "/opt/microchip/xc8/v1.11/include/pic18f25k50.h"
   139  0000                     UFRM equ 0F68h ;# 
   140                           # 817 "/opt/microchip/xc8/v1.11/include/pic18f25k50.h"
   141  0000                     UFRML equ 0F68h ;# 
   142                           # 894 "/opt/microchip/xc8/v1.11/include/pic18f25k50.h"
   143  0000                     UFRMH equ 0F69h ;# 
   144                           # 933 "/opt/microchip/xc8/v1.11/include/pic18f25k50.h"
   145  0000                     UEP0 equ 0F6Ah ;# 
   146                           # 1064 "/opt/microchip/xc8/v1.11/include/pic18f25k50.h"
   147  0000                     UEP1 equ 0F6Bh ;# 
   148                           # 1195 "/opt/microchip/xc8/v1.11/include/pic18f25k50.h"
   149  0000                     UEP2 equ 0F6Ch ;# 
   150                           # 1326 "/opt/microchip/xc8/v1.11/include/pic18f25k50.h"
   151  0000                     UEP3 equ 0F6Dh ;# 
   152                           # 1457 "/opt/microchip/xc8/v1.11/include/pic18f25k50.h"
   153  0000                     UEP4 equ 0F6Eh ;# 
   154                           # 1588 "/opt/microchip/xc8/v1.11/include/pic18f25k50.h"
   155  0000                     UEP5 equ 0F6Fh ;# 
   156                           # 1719 "/opt/microchip/xc8/v1.11/include/pic18f25k50.h"
   157  0000                     UEP6 equ 0F70h ;# 
   158                           # 1850 "/opt/microchip/xc8/v1.11/include/pic18f25k50.h"
   159  0000                     UEP7 equ 0F71h ;# 
   160                           # 1981 "/opt/microchip/xc8/v1.11/include/pic18f25k50.h"
   161  0000                     UEP8 equ 0F72h ;# 
   162                           # 2068 "/opt/microchip/xc8/v1.11/include/pic18f25k50.h"
   163  0000                     UEP9 equ 0F73h ;# 
   164                           # 2155 "/opt/microchip/xc8/v1.11/include/pic18f25k50.h"
   165  0000                     UEP10 equ 0F74h ;# 
   166                           # 2242 "/opt/microchip/xc8/v1.11/include/pic18f25k50.h"
   167  0000                     UEP11 equ 0F75h ;# 
   168                           # 2329 "/opt/microchip/xc8/v1.11/include/pic18f25k50.h"
   169  0000                     UEP12 equ 0F76h ;# 
   170                           # 2416 "/opt/microchip/xc8/v1.11/include/pic18f25k50.h"
   171  0000                     UEP13 equ 0F77h ;# 
   172                           # 2503 "/opt/microchip/xc8/v1.11/include/pic18f25k50.h"
   173  0000                     UEP14 equ 0F78h ;# 
   174                           # 2590 "/opt/microchip/xc8/v1.11/include/pic18f25k50.h"
   175  0000                     UEP15 equ 0F79h ;# 
   176                           # 2677 "/opt/microchip/xc8/v1.11/include/pic18f25k50.h"
   177  0000                     SLRCON equ 0F7Ah ;# 
   178                           # 2708 "/opt/microchip/xc8/v1.11/include/pic18f25k50.h"
   179  0000                     VREFCON2 equ 0F7Bh ;# 
   180                           # 2759 "/opt/microchip/xc8/v1.11/include/pic18f25k50.h"
   181  0000                     VREFCON1 equ 0F7Ch ;# 
   182                           # 2819 "/opt/microchip/xc8/v1.11/include/pic18f25k50.h"
   183  0000                     VREFCON0 equ 0F7Dh ;# 
   184                           # 2878 "/opt/microchip/xc8/v1.11/include/pic18f25k50.h"
   185  0000                     PMD0 equ 0F7Eh ;# 
   186                           # 2962 "/opt/microchip/xc8/v1.11/include/pic18f25k50.h"
   187  0000                     PMD1 equ 0F7Fh ;# 
   188                           # 3043 "/opt/microchip/xc8/v1.11/include/pic18f25k50.h"
   189  0000                     PORTA equ 0F80h ;# 
   190                           # 3196 "/opt/microchip/xc8/v1.11/include/pic18f25k50.h"
   191  0000                     PORTB equ 0F81h ;# 
   192                           # 3305 "/opt/microchip/xc8/v1.11/include/pic18f25k50.h"
   193  0000                     PORTC equ 0F82h ;# 
   194                           # 3458 "/opt/microchip/xc8/v1.11/include/pic18f25k50.h"
   195  0000                     PORTE equ 0F84h ;# 
   196                           # 3691 "/opt/microchip/xc8/v1.11/include/pic18f25k50.h"
   197  0000                     IOCB equ 0F86h ;# 
   198                           # 3729 "/opt/microchip/xc8/v1.11/include/pic18f25k50.h"
   199  0000                     IOCC equ 0F87h ;# 
   200                           # 3785 "/opt/microchip/xc8/v1.11/include/pic18f25k50.h"
   201  0000                     CTMUICON equ 0F88h ;# 
   202                           # 3860 "/opt/microchip/xc8/v1.11/include/pic18f25k50.h"
   203  0000                     LATA equ 0F89h ;# 
   204                           # 3992 "/opt/microchip/xc8/v1.11/include/pic18f25k50.h"
   205  0000                     LATB equ 0F8Ah ;# 
   206                           # 4124 "/opt/microchip/xc8/v1.11/include/pic18f25k50.h"
   207  0000                     LATC equ 0F8Bh ;# 
   208                           # 4251 "/opt/microchip/xc8/v1.11/include/pic18f25k50.h"
   209  0000                     CTMUCONL equ 0F8Eh ;# 
   210                           # 4256 "/opt/microchip/xc8/v1.11/include/pic18f25k50.h"
   211  0000                     CTMUCON1 equ 0F8Eh ;# 
   212                           # 4404 "/opt/microchip/xc8/v1.11/include/pic18f25k50.h"
   213  0000                     CTMUCONH equ 0F8Fh ;# 
   214                           # 4409 "/opt/microchip/xc8/v1.11/include/pic18f25k50.h"
   215  0000                     CTMUCON0 equ 0F8Fh ;# 
   216                           # 4559 "/opt/microchip/xc8/v1.11/include/pic18f25k50.h"
   217  0000                     CCPR2 equ 0F90h ;# 
   218                           # 4565 "/opt/microchip/xc8/v1.11/include/pic18f25k50.h"
   219  0000                     CCPR2L equ 0F90h ;# 
   220                           # 4584 "/opt/microchip/xc8/v1.11/include/pic18f25k50.h"
   221  0000                     CCPR2H equ 0F91h ;# 
   222                           # 4603 "/opt/microchip/xc8/v1.11/include/pic18f25k50.h"
   223  0000                     TRISA equ 0F92h ;# 
   224                           # 4608 "/opt/microchip/xc8/v1.11/include/pic18f25k50.h"
   225  0000                     DDRA equ 0F92h ;# 
   226                           # 4812 "/opt/microchip/xc8/v1.11/include/pic18f25k50.h"
   227  0000                     TRISB equ 0F93h ;# 
   228                           # 4817 "/opt/microchip/xc8/v1.11/include/pic18f25k50.h"
   229  0000                     DDRB equ 0F93h ;# 
   230                           # 5033 "/opt/microchip/xc8/v1.11/include/pic18f25k50.h"
   231  0000                     TRISC equ 0F94h ;# 
   232                           # 5038 "/opt/microchip/xc8/v1.11/include/pic18f25k50.h"
   233  0000                     DDRC equ 0F94h ;# 
   234                           # 5228 "/opt/microchip/xc8/v1.11/include/pic18f25k50.h"
   235  0000                     CCP2CON equ 0F97h ;# 
   236                           # 5233 "/opt/microchip/xc8/v1.11/include/pic18f25k50.h"
   237  0000                     ECCP2CON equ 0F97h ;# 
   238                           # 5383 "/opt/microchip/xc8/v1.11/include/pic18f25k50.h"
   239  0000                     CM1CON0 equ 0F98h ;# 
   240                           # 5505 "/opt/microchip/xc8/v1.11/include/pic18f25k50.h"
   241  0000                     CM2CON0 equ 0F99h ;# 
   242                           # 5627 "/opt/microchip/xc8/v1.11/include/pic18f25k50.h"
   243  0000                     CM2CON1 equ 0F9Ah ;# 
   244                           # 5688 "/opt/microchip/xc8/v1.11/include/pic18f25k50.h"
   245  0000                     OSCTUNE equ 0F9Bh ;# 
   246                           # 5757 "/opt/microchip/xc8/v1.11/include/pic18f25k50.h"
   247  0000                     HLVDCON equ 0F9Ch ;# 
   248                           # 5826 "/opt/microchip/xc8/v1.11/include/pic18f25k50.h"
   249  0000                     PIE1 equ 0F9Dh ;# 
   250                           # 5924 "/opt/microchip/xc8/v1.11/include/pic18f25k50.h"
   251  0000                     PIR1 equ 0F9Eh ;# 
   252                           # 6022 "/opt/microchip/xc8/v1.11/include/pic18f25k50.h"
   253  0000                     IPR1 equ 0F9Fh ;# 
   254                           # 6120 "/opt/microchip/xc8/v1.11/include/pic18f25k50.h"
   255  0000                     PIE2 equ 0FA0h ;# 
   256                           # 6218 "/opt/microchip/xc8/v1.11/include/pic18f25k50.h"
   257  0000                     PIR2 equ 0FA1h ;# 
   258                           # 6316 "/opt/microchip/xc8/v1.11/include/pic18f25k50.h"
   259  0000                     IPR2 equ 0FA2h ;# 
   260                           # 6414 "/opt/microchip/xc8/v1.11/include/pic18f25k50.h"
   261  0000                     PIE3 equ 0FA3h ;# 
   262                           # 6495 "/opt/microchip/xc8/v1.11/include/pic18f25k50.h"
   263  0000                     PIR3 equ 0FA4h ;# 
   264                           # 6541 "/opt/microchip/xc8/v1.11/include/pic18f25k50.h"
   265  0000                     IPR3 equ 0FA5h ;# 
   266                           # 6587 "/opt/microchip/xc8/v1.11/include/pic18f25k50.h"
   267  0000                     EECON1 equ 0FA6h ;# 
   268                           # 6652 "/opt/microchip/xc8/v1.11/include/pic18f25k50.h"
   269  0000                     EECON2 equ 0FA7h ;# 
   270                           # 6671 "/opt/microchip/xc8/v1.11/include/pic18f25k50.h"
   271  0000                     EEDATA equ 0FA8h ;# 
   272                           # 6677 "/opt/microchip/xc8/v1.11/include/pic18f25k50.h"
   273  0000                     EEADR equ 0FA9h ;# 
   274                           # 6683 "/opt/microchip/xc8/v1.11/include/pic18f25k50.h"
   275  0000                     RCSTA1 equ 0FABh ;# 
   276                           # 6688 "/opt/microchip/xc8/v1.11/include/pic18f25k50.h"
   277  0000                     RCSTA equ 0FABh ;# 
   278                           # 6892 "/opt/microchip/xc8/v1.11/include/pic18f25k50.h"
   279  0000                     TXSTA1 equ 0FACh ;# 
   280                           # 6897 "/opt/microchip/xc8/v1.11/include/pic18f25k50.h"
   281  0000                     TXSTA equ 0FACh ;# 
   282                           # 7189 "/opt/microchip/xc8/v1.11/include/pic18f25k50.h"
   283  0000                     TXREG1 equ 0FADh ;# 
   284                           # 7194 "/opt/microchip/xc8/v1.11/include/pic18f25k50.h"
   285  0000                     TXREG equ 0FADh ;# 
   286                           # 7226 "/opt/microchip/xc8/v1.11/include/pic18f25k50.h"
   287  0000                     RCREG1 equ 0FAEh ;# 
   288                           # 7231 "/opt/microchip/xc8/v1.11/include/pic18f25k50.h"
   289  0000                     RCREG equ 0FAEh ;# 
   290                           # 7263 "/opt/microchip/xc8/v1.11/include/pic18f25k50.h"
   291  0000                     SPBRG1 equ 0FAFh ;# 
   292                           # 7268 "/opt/microchip/xc8/v1.11/include/pic18f25k50.h"
   293  0000                     SPBRG equ 0FAFh ;# 
   294                           # 7400 "/opt/microchip/xc8/v1.11/include/pic18f25k50.h"
   295  0000                     SPBRGH1 equ 0FB0h ;# 
   296                           # 7405 "/opt/microchip/xc8/v1.11/include/pic18f25k50.h"
   297  0000                     SPBRGH equ 0FB0h ;# 
   298                           # 7537 "/opt/microchip/xc8/v1.11/include/pic18f25k50.h"
   299  0000                     T3CON equ 0FB1h ;# 
   300                           # 7667 "/opt/microchip/xc8/v1.11/include/pic18f25k50.h"
   301  0000                     TMR3 equ 0FB2h ;# 
   302                           # 7673 "/opt/microchip/xc8/v1.11/include/pic18f25k50.h"
   303  0000                     TMR3L equ 0FB2h ;# 
   304                           # 7692 "/opt/microchip/xc8/v1.11/include/pic18f25k50.h"
   305  0000                     TMR3H equ 0FB3h ;# 
   306                           # 7711 "/opt/microchip/xc8/v1.11/include/pic18f25k50.h"
   307  0000                     T3GCON equ 0FB4h ;# 
   308                           # 7841 "/opt/microchip/xc8/v1.11/include/pic18f25k50.h"
   309  0000                     ACTCON equ 0FB5h ;# 
   310                           # 7846 "/opt/microchip/xc8/v1.11/include/pic18f25k50.h"
   311  0000                     STCON equ 0FB5h ;# 
   312                           # 8046 "/opt/microchip/xc8/v1.11/include/pic18f25k50.h"
   313  0000                     ECCP1AS equ 0FB6h ;# 
   314                           # 8179 "/opt/microchip/xc8/v1.11/include/pic18f25k50.h"
   315  0000                     PWM1CON equ 0FB7h ;# 
   316                           # 8184 "/opt/microchip/xc8/v1.11/include/pic18f25k50.h"
   317  0000                     ECCP1DEL equ 0FB7h ;# 
   318                           # 8328 "/opt/microchip/xc8/v1.11/include/pic18f25k50.h"
   319  0000                     BAUDCON1 equ 0FB8h ;# 
   320                           # 8333 "/opt/microchip/xc8/v1.11/include/pic18f25k50.h"
   321  0000                     BAUDCON equ 0FB8h ;# 
   322                           # 8337 "/opt/microchip/xc8/v1.11/include/pic18f25k50.h"
   323  0000                     BAUDCTL equ 0FB8h ;# 
   324                           # 8879 "/opt/microchip/xc8/v1.11/include/pic18f25k50.h"
   325  0000                     PSTR1CON equ 0FB9h ;# 
   326                           # 8954 "/opt/microchip/xc8/v1.11/include/pic18f25k50.h"
   327  0000                     T2CON equ 0FBAh ;# 
   328                           # 9024 "/opt/microchip/xc8/v1.11/include/pic18f25k50.h"
   329  0000                     PR2 equ 0FBBh ;# 
   330                           # 9043 "/opt/microchip/xc8/v1.11/include/pic18f25k50.h"
   331  0000                     TMR2 equ 0FBCh ;# 
   332                           # 9062 "/opt/microchip/xc8/v1.11/include/pic18f25k50.h"
   333  0000                     CCP1CON equ 0FBDh ;# 
   334                           # 9067 "/opt/microchip/xc8/v1.11/include/pic18f25k50.h"
   335  0000                     ECCP1CON equ 0FBDh ;# 
   336                           # 9253 "/opt/microchip/xc8/v1.11/include/pic18f25k50.h"
   337  0000                     CCPR1 equ 0FBEh ;# 
   338                           # 9259 "/opt/microchip/xc8/v1.11/include/pic18f25k50.h"
   339  0000                     CCPR1L equ 0FBEh ;# 
   340                           # 9278 "/opt/microchip/xc8/v1.11/include/pic18f25k50.h"
   341  0000                     CCPR1H equ 0FBFh ;# 
   342                           # 9297 "/opt/microchip/xc8/v1.11/include/pic18f25k50.h"
   343  0000                     ADCON2 equ 0FC0h ;# 
   344                           # 9367 "/opt/microchip/xc8/v1.11/include/pic18f25k50.h"
   345  0000                     ADCON1 equ 0FC1h ;# 
   346                           # 9434 "/opt/microchip/xc8/v1.11/include/pic18f25k50.h"
   347  0000                     ADCON0 equ 0FC2h ;# 
   348                           # 9519 "/opt/microchip/xc8/v1.11/include/pic18f25k50.h"
   349  0000                     ADRESL equ 0FC3h ;# 
   350                           # 9525 "/opt/microchip/xc8/v1.11/include/pic18f25k50.h"
   351  0000                     ADRESH equ 0FC4h ;# 
   352                           # 9531 "/opt/microchip/xc8/v1.11/include/pic18f25k50.h"
   353  0000                     SSP1CON2 equ 0FC5h ;# 
   354                           # 9536 "/opt/microchip/xc8/v1.11/include/pic18f25k50.h"
   355  0000                     SSPCON2 equ 0FC5h ;# 
   356                           # 9974 "/opt/microchip/xc8/v1.11/include/pic18f25k50.h"
   357  0000                     SSP1CON1 equ 0FC6h ;# 
   358                           # 9979 "/opt/microchip/xc8/v1.11/include/pic18f25k50.h"
   359  0000                     SSPCON equ 0FC6h ;# 
   360                           # 9983 "/opt/microchip/xc8/v1.11/include/pic18f25k50.h"
   361  0000                     SSP1CON equ 0FC6h ;# 
   362                           # 9987 "/opt/microchip/xc8/v1.11/include/pic18f25k50.h"
   363  0000                     SSPCON1 equ 0FC6h ;# 
   364                           # 10527 "/opt/microchip/xc8/v1.11/include/pic18f25k50.h"
   365  0000                     SSP1STAT equ 0FC7h ;# 
   366                           # 10532 "/opt/microchip/xc8/v1.11/include/pic18f25k50.h"
   367  0000                     SSPSTAT equ 0FC7h ;# 
   368                           # 11186 "/opt/microchip/xc8/v1.11/include/pic18f25k50.h"
   369  0000                     SSP1ADD equ 0FC8h ;# 
   370                           # 11191 "/opt/microchip/xc8/v1.11/include/pic18f25k50.h"
   371  0000                     SSPADD equ 0FC8h ;# 
   372                           # 11607 "/opt/microchip/xc8/v1.11/include/pic18f25k50.h"
   373  0000                     SSP1BUF equ 0FC9h ;# 
   374                           # 11612 "/opt/microchip/xc8/v1.11/include/pic18f25k50.h"
   375  0000                     SSPBUF equ 0FC9h ;# 
   376                           # 11644 "/opt/microchip/xc8/v1.11/include/pic18f25k50.h"
   377  0000                     SSP1MSK equ 0FCAh ;# 
   378                           # 11649 "/opt/microchip/xc8/v1.11/include/pic18f25k50.h"
   379  0000                     SSPMSK equ 0FCAh ;# 
   380                           # 11781 "/opt/microchip/xc8/v1.11/include/pic18f25k50.h"
   381  0000                     SSP1CON3 equ 0FCBh ;# 
   382                           # 11786 "/opt/microchip/xc8/v1.11/include/pic18f25k50.h"
   383  0000                     SSPCON3 equ 0FCBh ;# 
   384                           # 11902 "/opt/microchip/xc8/v1.11/include/pic18f25k50.h"
   385  0000                     T1GCON equ 0FCCh ;# 
   386                           # 12032 "/opt/microchip/xc8/v1.11/include/pic18f25k50.h"
   387  0000                     T1CON equ 0FCDh ;# 
   388                           # 12144 "/opt/microchip/xc8/v1.11/include/pic18f25k50.h"
   389  0000                     TMR1 equ 0FCEh ;# 
   390                           # 12150 "/opt/microchip/xc8/v1.11/include/pic18f25k50.h"
   391  0000                     TMR1L equ 0FCEh ;# 
   392                           # 12169 "/opt/microchip/xc8/v1.11/include/pic18f25k50.h"
   393  0000                     TMR1H equ 0FCFh ;# 
   394                           # 12188 "/opt/microchip/xc8/v1.11/include/pic18f25k50.h"
   395  0000                     RCON equ 0FD0h ;# 
   396                           # 12320 "/opt/microchip/xc8/v1.11/include/pic18f25k50.h"
   397  0000                     WDTCON equ 0FD1h ;# 
   398                           # 12347 "/opt/microchip/xc8/v1.11/include/pic18f25k50.h"
   399  0000                     OSCCON2 equ 0FD2h ;# 
   400                           # 12408 "/opt/microchip/xc8/v1.11/include/pic18f25k50.h"
   401  0000                     OSCCON equ 0FD3h ;# 
   402                           # 12490 "/opt/microchip/xc8/v1.11/include/pic18f25k50.h"
   403  0000                     T0CON equ 0FD5h ;# 
   404                           # 12559 "/opt/microchip/xc8/v1.11/include/pic18f25k50.h"
   405  0000                     TMR0 equ 0FD6h ;# 
   406                           # 12565 "/opt/microchip/xc8/v1.11/include/pic18f25k50.h"
   407  0000                     TMR0L equ 0FD6h ;# 
   408                           # 12584 "/opt/microchip/xc8/v1.11/include/pic18f25k50.h"
   409  0000                     TMR0H equ 0FD7h ;# 
   410                           # 12603 "/opt/microchip/xc8/v1.11/include/pic18f25k50.h"
   411  0000                     STATUS equ 0FD8h ;# 
   412                           # 12681 "/opt/microchip/xc8/v1.11/include/pic18f25k50.h"
   413  0000                     FSR2 equ 0FD9h ;# 
   414                           # 12687 "/opt/microchip/xc8/v1.11/include/pic18f25k50.h"
   415  0000                     FSR2L equ 0FD9h ;# 
   416                           # 12706 "/opt/microchip/xc8/v1.11/include/pic18f25k50.h"
   417  0000                     FSR2H equ 0FDAh ;# 
   418                           # 12712 "/opt/microchip/xc8/v1.11/include/pic18f25k50.h"
   419  0000                     BSR equ 0FE0h ;# 
   420                           # 12718 "/opt/microchip/xc8/v1.11/include/pic18f25k50.h"
   421  0000                     FSR1 equ 0FE1h ;# 
   422                           # 12724 "/opt/microchip/xc8/v1.11/include/pic18f25k50.h"
   423  0000                     FSR1L equ 0FE1h ;# 
   424                           # 12743 "/opt/microchip/xc8/v1.11/include/pic18f25k50.h"
   425  0000                     FSR1H equ 0FE2h ;# 
   426                           # 12749 "/opt/microchip/xc8/v1.11/include/pic18f25k50.h"
   427  0000                     WREG equ 0FE8h ;# 
   428                           # 12768 "/opt/microchip/xc8/v1.11/include/pic18f25k50.h"
   429  0000                     FSR0 equ 0FE9h ;# 
   430                           # 12774 "/opt/microchip/xc8/v1.11/include/pic18f25k50.h"
   431  0000                     FSR0L equ 0FE9h ;# 
   432                           # 12793 "/opt/microchip/xc8/v1.11/include/pic18f25k50.h"
   433  0000                     FSR0H equ 0FEAh ;# 
   434                           # 12799 "/opt/microchip/xc8/v1.11/include/pic18f25k50.h"
   435  0000                     INDF0 equ 0FEFh ;# 
   436                           # 12818 "/opt/microchip/xc8/v1.11/include/pic18f25k50.h"
   437  0000                     INTCON3 equ 0FF0h ;# 
   438                           # 12909 "/opt/microchip/xc8/v1.11/include/pic18f25k50.h"
   439  0000                     INTCON2 equ 0FF1h ;# 
   440                           # 12985 "/opt/microchip/xc8/v1.11/include/pic18f25k50.h"
   441  0000                     INTCON equ 0FF2h ;# 
   442                           # 13111 "/opt/microchip/xc8/v1.11/include/pic18f25k50.h"
   443  0000                     PROD equ 0FF3h ;# 
   444                           # 13117 "/opt/microchip/xc8/v1.11/include/pic18f25k50.h"
   445  0000                     PRODL equ 0FF3h ;# 
   446                           # 13136 "/opt/microchip/xc8/v1.11/include/pic18f25k50.h"
   447  0000                     PRODH equ 0FF4h ;# 
   448                           # 13155 "/opt/microchip/xc8/v1.11/include/pic18f25k50.h"
   449  0000                     TABLAT equ 0FF5h ;# 
   450                           # 13176 "/opt/microchip/xc8/v1.11/include/pic18f25k50.h"
   451  0000                     TBLPTR equ 0FF6h ;# 
   452                           # 13182 "/opt/microchip/xc8/v1.11/include/pic18f25k50.h"
   453  0000                     TBLPTRL equ 0FF6h ;# 
   454                           # 13201 "/opt/microchip/xc8/v1.11/include/pic18f25k50.h"
   455  0000                     TBLPTRH equ 0FF7h ;# 
   456                           # 13220 "/opt/microchip/xc8/v1.11/include/pic18f25k50.h"
   457  0000                     TBLPTRU equ 0FF8h ;# 
   458                           # 13228 "/opt/microchip/xc8/v1.11/include/pic18f25k50.h"
   459  0000                     PCLAT equ 0FF9h ;# 
   460                           # 13235 "/opt/microchip/xc8/v1.11/include/pic18f25k50.h"
   461  0000                     PC equ 0FF9h ;# 
   462                           # 13241 "/opt/microchip/xc8/v1.11/include/pic18f25k50.h"
   463  0000                     PCL equ 0FF9h ;# 
   464                           # 13260 "/opt/microchip/xc8/v1.11/include/pic18f25k50.h"
   465  0000                     PCLATH equ 0FFAh ;# 
   466                           # 13279 "/opt/microchip/xc8/v1.11/include/pic18f25k50.h"
   467  0000                     PCLATU equ 0FFBh ;# 
   468                           # 13285 "/opt/microchip/xc8/v1.11/include/pic18f25k50.h"
   469  0000                     STKPTR equ 0FFCh ;# 
   470                           # 13358 "/opt/microchip/xc8/v1.11/include/pic18f25k50.h"
   471  0000                     TOS equ 0FFDh ;# 
   472                           # 13364 "/opt/microchip/xc8/v1.11/include/pic18f25k50.h"
   473  0000                     TOSL equ 0FFDh ;# 
   474                           # 13383 "/opt/microchip/xc8/v1.11/include/pic18f25k50.h"
   475  0000                     TOSH equ 0FFEh ;# 
   476                           # 13402 "/opt/microchip/xc8/v1.11/include/pic18f25k50.h"
   477  0000                     TOSU equ 0FFFh ;# 
   478                           # 46 "/opt/microchip/xc8/v1.11/include/pic18f25k50.h"
   479  0000                     SRCON1 equ 0F57h ;# 
   480                           # 107 "/opt/microchip/xc8/v1.11/include/pic18f25k50.h"
   481  0000                     SRCON0 equ 0F58h ;# 
   482                           # 177 "/opt/microchip/xc8/v1.11/include/pic18f25k50.h"
   483  0000                     CCPTMRS equ 0F59h ;# 
   484                           # 203 "/opt/microchip/xc8/v1.11/include/pic18f25k50.h"
   485  0000                     VREGCON equ 0F5Ah ;# 
   486                           # 222 "/opt/microchip/xc8/v1.11/include/pic18f25k50.h"
   487  0000                     ANSELA equ 0F5Bh ;# 
   488                           # 266 "/opt/microchip/xc8/v1.11/include/pic18f25k50.h"
   489  0000                     ANSELB equ 0F5Ch ;# 
   490                           # 315 "/opt/microchip/xc8/v1.11/include/pic18f25k50.h"
   491  0000                     ANSELC equ 0F5Dh ;# 
   492                           # 348 "/opt/microchip/xc8/v1.11/include/pic18f25k50.h"
   493  0000                     UCON equ 0F60h ;# 
   494                           # 398 "/opt/microchip/xc8/v1.11/include/pic18f25k50.h"
   495  0000                     USTAT equ 0F61h ;# 
   496                           # 457 "/opt/microchip/xc8/v1.11/include/pic18f25k50.h"
   497  0000                     UCFG equ 0F62h ;# 
   498                           # 538 "/opt/microchip/xc8/v1.11/include/pic18f25k50.h"
   499  0000                     UADDR equ 0F63h ;# 
   500                           # 601 "/opt/microchip/xc8/v1.11/include/pic18f25k50.h"
   501  0000                     UIE equ 0F64h ;# 
   502                           # 656 "/opt/microchip/xc8/v1.11/include/pic18f25k50.h"
   503  0000                     UIR equ 0F65h ;# 
   504                           # 711 "/opt/microchip/xc8/v1.11/include/pic18f25k50.h"
   505  0000                     UEIE equ 0F66h ;# 
   506                           # 761 "/opt/microchip/xc8/v1.11/include/pic18f25k50.h"
   507  0000                     UEIR equ 0F67h ;# 
   508                           # 811 "/opt/microchip/xc8/v1.11/include/pic18f25k50.h"
   509  0000                     UFRM equ 0F68h ;# 
   510                           # 817 "/opt/microchip/xc8/v1.11/include/pic18f25k50.h"
   511  0000                     UFRML equ 0F68h ;# 
   512                           # 894 "/opt/microchip/xc8/v1.11/include/pic18f25k50.h"
   513  0000                     UFRMH equ 0F69h ;# 
   514                           # 933 "/opt/microchip/xc8/v1.11/include/pic18f25k50.h"
   515  0000                     UEP0 equ 0F6Ah ;# 
   516                           # 1064 "/opt/microchip/xc8/v1.11/include/pic18f25k50.h"
   517  0000                     UEP1 equ 0F6Bh ;# 
   518                           # 1195 "/opt/microchip/xc8/v1.11/include/pic18f25k50.h"
   519  0000                     UEP2 equ 0F6Ch ;# 
   520                           # 1326 "/opt/microchip/xc8/v1.11/include/pic18f25k50.h"
   521  0000                     UEP3 equ 0F6Dh ;# 
   522                           # 1457 "/opt/microchip/xc8/v1.11/include/pic18f25k50.h"
   523  0000                     UEP4 equ 0F6Eh ;# 
   524                           # 1588 "/opt/microchip/xc8/v1.11/include/pic18f25k50.h"
   525  0000                     UEP5 equ 0F6Fh ;# 
   526                           # 1719 "/opt/microchip/xc8/v1.11/include/pic18f25k50.h"
   527  0000                     UEP6 equ 0F70h ;# 
   528                           # 1850 "/opt/microchip/xc8/v1.11/include/pic18f25k50.h"
   529  0000                     UEP7 equ 0F71h ;# 
   530                           # 1981 "/opt/microchip/xc8/v1.11/include/pic18f25k50.h"
   531  0000                     UEP8 equ 0F72h ;# 
   532                           # 2068 "/opt/microchip/xc8/v1.11/include/pic18f25k50.h"
   533  0000                     UEP9 equ 0F73h ;# 
   534                           # 2155 "/opt/microchip/xc8/v1.11/include/pic18f25k50.h"
   535  0000                     UEP10 equ 0F74h ;# 
   536                           # 2242 "/opt/microchip/xc8/v1.11/include/pic18f25k50.h"
   537  0000                     UEP11 equ 0F75h ;# 
   538                           # 2329 "/opt/microchip/xc8/v1.11/include/pic18f25k50.h"
   539  0000                     UEP12 equ 0F76h ;# 
   540                           # 2416 "/opt/microchip/xc8/v1.11/include/pic18f25k50.h"
   541  0000                     UEP13 equ 0F77h ;# 
   542                           # 2503 "/opt/microchip/xc8/v1.11/include/pic18f25k50.h"
   543  0000                     UEP14 equ 0F78h ;# 
   544                           # 2590 "/opt/microchip/xc8/v1.11/include/pic18f25k50.h"
   545  0000                     UEP15 equ 0F79h ;# 
   546                           # 2677 "/opt/microchip/xc8/v1.11/include/pic18f25k50.h"
   547  0000                     SLRCON equ 0F7Ah ;# 
   548                           # 2708 "/opt/microchip/xc8/v1.11/include/pic18f25k50.h"
   549  0000                     VREFCON2 equ 0F7Bh ;# 
   550                           # 2759 "/opt/microchip/xc8/v1.11/include/pic18f25k50.h"
   551  0000                     VREFCON1 equ 0F7Ch ;# 
   552                           # 2819 "/opt/microchip/xc8/v1.11/include/pic18f25k50.h"
   553  0000                     VREFCON0 equ 0F7Dh ;# 
   554                           # 2878 "/opt/microchip/xc8/v1.11/include/pic18f25k50.h"
   555  0000                     PMD0 equ 0F7Eh ;# 
   556                           # 2962 "/opt/microchip/xc8/v1.11/include/pic18f25k50.h"
   557  0000                     PMD1 equ 0F7Fh ;# 
   558                           # 3043 "/opt/microchip/xc8/v1.11/include/pic18f25k50.h"
   559  0000                     PORTA equ 0F80h ;# 
   560                           # 3196 "/opt/microchip/xc8/v1.11/include/pic18f25k50.h"
   561  0000                     PORTB equ 0F81h ;# 
   562                           # 3305 "/opt/microchip/xc8/v1.11/include/pic18f25k50.h"
   563  0000                     PORTC equ 0F82h ;# 
   564                           # 3458 "/opt/microchip/xc8/v1.11/include/pic18f25k50.h"
   565  0000                     PORTE equ 0F84h ;# 
   566                           # 3691 "/opt/microchip/xc8/v1.11/include/pic18f25k50.h"
   567  0000                     IOCB equ 0F86h ;# 
   568                           # 3729 "/opt/microchip/xc8/v1.11/include/pic18f25k50.h"
   569  0000                     IOCC equ 0F87h ;# 
   570                           # 3785 "/opt/microchip/xc8/v1.11/include/pic18f25k50.h"
   571  0000                     CTMUICON equ 0F88h ;# 
   572                           # 3860 "/opt/microchip/xc8/v1.11/include/pic18f25k50.h"
   573  0000                     LATA equ 0F89h ;# 
   574                           # 3992 "/opt/microchip/xc8/v1.11/include/pic18f25k50.h"
   575  0000                     LATB equ 0F8Ah ;# 
   576                           # 4124 "/opt/microchip/xc8/v1.11/include/pic18f25k50.h"
   577  0000                     LATC equ 0F8Bh ;# 
   578                           # 4251 "/opt/microchip/xc8/v1.11/include/pic18f25k50.h"
   579  0000                     CTMUCONL equ 0F8Eh ;# 
   580                           # 4256 "/opt/microchip/xc8/v1.11/include/pic18f25k50.h"
   581  0000                     CTMUCON1 equ 0F8Eh ;# 
   582                           # 4404 "/opt/microchip/xc8/v1.11/include/pic18f25k50.h"
   583  0000                     CTMUCONH equ 0F8Fh ;# 
   584                           # 4409 "/opt/microchip/xc8/v1.11/include/pic18f25k50.h"
   585  0000                     CTMUCON0 equ 0F8Fh ;# 
   586                           # 4559 "/opt/microchip/xc8/v1.11/include/pic18f25k50.h"
   587  0000                     CCPR2 equ 0F90h ;# 
   588                           # 4565 "/opt/microchip/xc8/v1.11/include/pic18f25k50.h"
   589  0000                     CCPR2L equ 0F90h ;# 
   590                           # 4584 "/opt/microchip/xc8/v1.11/include/pic18f25k50.h"
   591  0000                     CCPR2H equ 0F91h ;# 
   592                           # 4603 "/opt/microchip/xc8/v1.11/include/pic18f25k50.h"
   593  0000                     TRISA equ 0F92h ;# 
   594                           # 4608 "/opt/microchip/xc8/v1.11/include/pic18f25k50.h"
   595  0000                     DDRA equ 0F92h ;# 
   596                           # 4812 "/opt/microchip/xc8/v1.11/include/pic18f25k50.h"
   597  0000                     TRISB equ 0F93h ;# 
   598                           # 4817 "/opt/microchip/xc8/v1.11/include/pic18f25k50.h"
   599  0000                     DDRB equ 0F93h ;# 
   600                           # 5033 "/opt/microchip/xc8/v1.11/include/pic18f25k50.h"
   601  0000                     TRISC equ 0F94h ;# 
   602                           # 5038 "/opt/microchip/xc8/v1.11/include/pic18f25k50.h"
   603  0000                     DDRC equ 0F94h ;# 
   604                           # 5228 "/opt/microchip/xc8/v1.11/include/pic18f25k50.h"
   605  0000                     CCP2CON equ 0F97h ;# 
   606                           # 5233 "/opt/microchip/xc8/v1.11/include/pic18f25k50.h"
   607  0000                     ECCP2CON equ 0F97h ;# 
   608                           # 5383 "/opt/microchip/xc8/v1.11/include/pic18f25k50.h"
   609  0000                     CM1CON0 equ 0F98h ;# 
   610                           # 5505 "/opt/microchip/xc8/v1.11/include/pic18f25k50.h"
   611  0000                     CM2CON0 equ 0F99h ;# 
   612                           # 5627 "/opt/microchip/xc8/v1.11/include/pic18f25k50.h"
   613  0000                     CM2CON1 equ 0F9Ah ;# 
   614                           # 5688 "/opt/microchip/xc8/v1.11/include/pic18f25k50.h"
   615  0000                     OSCTUNE equ 0F9Bh ;# 
   616                           # 5757 "/opt/microchip/xc8/v1.11/include/pic18f25k50.h"
   617  0000                     HLVDCON equ 0F9Ch ;# 
   618                           # 5826 "/opt/microchip/xc8/v1.11/include/pic18f25k50.h"
   619  0000                     PIE1 equ 0F9Dh ;# 
   620                           # 5924 "/opt/microchip/xc8/v1.11/include/pic18f25k50.h"
   621  0000                     PIR1 equ 0F9Eh ;# 
   622                           # 6022 "/opt/microchip/xc8/v1.11/include/pic18f25k50.h"
   623  0000                     IPR1 equ 0F9Fh ;# 
   624                           # 6120 "/opt/microchip/xc8/v1.11/include/pic18f25k50.h"
   625  0000                     PIE2 equ 0FA0h ;# 
   626                           # 6218 "/opt/microchip/xc8/v1.11/include/pic18f25k50.h"
   627  0000                     PIR2 equ 0FA1h ;# 
   628                           # 6316 "/opt/microchip/xc8/v1.11/include/pic18f25k50.h"
   629  0000                     IPR2 equ 0FA2h ;# 
   630                           # 6414 "/opt/microchip/xc8/v1.11/include/pic18f25k50.h"
   631  0000                     PIE3 equ 0FA3h ;# 
   632                           # 6495 "/opt/microchip/xc8/v1.11/include/pic18f25k50.h"
   633  0000                     PIR3 equ 0FA4h ;# 
   634                           # 6541 "/opt/microchip/xc8/v1.11/include/pic18f25k50.h"
   635  0000                     IPR3 equ 0FA5h ;# 
   636                           # 6587 "/opt/microchip/xc8/v1.11/include/pic18f25k50.h"
   637  0000                     EECON1 equ 0FA6h ;# 
   638                           # 6652 "/opt/microchip/xc8/v1.11/include/pic18f25k50.h"
   639  0000                     EECON2 equ 0FA7h ;# 
   640                           # 6671 "/opt/microchip/xc8/v1.11/include/pic18f25k50.h"
   641  0000                     EEDATA equ 0FA8h ;# 
   642                           # 6677 "/opt/microchip/xc8/v1.11/include/pic18f25k50.h"
   643  0000                     EEADR equ 0FA9h ;# 
   644                           # 6683 "/opt/microchip/xc8/v1.11/include/pic18f25k50.h"
   645  0000                     RCSTA1 equ 0FABh ;# 
   646                           # 6688 "/opt/microchip/xc8/v1.11/include/pic18f25k50.h"
   647  0000                     RCSTA equ 0FABh ;# 
   648                           # 6892 "/opt/microchip/xc8/v1.11/include/pic18f25k50.h"
   649  0000                     TXSTA1 equ 0FACh ;# 
   650                           # 6897 "/opt/microchip/xc8/v1.11/include/pic18f25k50.h"
   651  0000                     TXSTA equ 0FACh ;# 
   652                           # 7189 "/opt/microchip/xc8/v1.11/include/pic18f25k50.h"
   653  0000                     TXREG1 equ 0FADh ;# 
   654                           # 7194 "/opt/microchip/xc8/v1.11/include/pic18f25k50.h"
   655  0000                     TXREG equ 0FADh ;# 
   656                           # 7226 "/opt/microchip/xc8/v1.11/include/pic18f25k50.h"
   657  0000                     RCREG1 equ 0FAEh ;# 
   658                           # 7231 "/opt/microchip/xc8/v1.11/include/pic18f25k50.h"
   659  0000                     RCREG equ 0FAEh ;# 
   660                           # 7263 "/opt/microchip/xc8/v1.11/include/pic18f25k50.h"
   661  0000                     SPBRG1 equ 0FAFh ;# 
   662                           # 7268 "/opt/microchip/xc8/v1.11/include/pic18f25k50.h"
   663  0000                     SPBRG equ 0FAFh ;# 
   664                           # 7400 "/opt/microchip/xc8/v1.11/include/pic18f25k50.h"
   665  0000                     SPBRGH1 equ 0FB0h ;# 
   666                           # 7405 "/opt/microchip/xc8/v1.11/include/pic18f25k50.h"
   667  0000                     SPBRGH equ 0FB0h ;# 
   668                           # 7537 "/opt/microchip/xc8/v1.11/include/pic18f25k50.h"
   669  0000                     T3CON equ 0FB1h ;# 
   670                           # 7667 "/opt/microchip/xc8/v1.11/include/pic18f25k50.h"
   671  0000                     TMR3 equ 0FB2h ;# 
   672                           # 7673 "/opt/microchip/xc8/v1.11/include/pic18f25k50.h"
   673  0000                     TMR3L equ 0FB2h ;# 
   674                           # 7692 "/opt/microchip/xc8/v1.11/include/pic18f25k50.h"
   675  0000                     TMR3H equ 0FB3h ;# 
   676                           # 7711 "/opt/microchip/xc8/v1.11/include/pic18f25k50.h"
   677  0000                     T3GCON equ 0FB4h ;# 
   678                           # 7841 "/opt/microchip/xc8/v1.11/include/pic18f25k50.h"
   679  0000                     ACTCON equ 0FB5h ;# 
   680                           # 7846 "/opt/microchip/xc8/v1.11/include/pic18f25k50.h"
   681  0000                     STCON equ 0FB5h ;# 
   682                           # 8046 "/opt/microchip/xc8/v1.11/include/pic18f25k50.h"
   683  0000                     ECCP1AS equ 0FB6h ;# 
   684                           # 8179 "/opt/microchip/xc8/v1.11/include/pic18f25k50.h"
   685  0000                     PWM1CON equ 0FB7h ;# 
   686                           # 8184 "/opt/microchip/xc8/v1.11/include/pic18f25k50.h"
   687  0000                     ECCP1DEL equ 0FB7h ;# 
   688                           # 8328 "/opt/microchip/xc8/v1.11/include/pic18f25k50.h"
   689  0000                     BAUDCON1 equ 0FB8h ;# 
   690                           # 8333 "/opt/microchip/xc8/v1.11/include/pic18f25k50.h"
   691  0000                     BAUDCON equ 0FB8h ;# 
   692                           # 8337 "/opt/microchip/xc8/v1.11/include/pic18f25k50.h"
   693  0000                     BAUDCTL equ 0FB8h ;# 
   694                           # 8879 "/opt/microchip/xc8/v1.11/include/pic18f25k50.h"
   695  0000                     PSTR1CON equ 0FB9h ;# 
   696                           # 8954 "/opt/microchip/xc8/v1.11/include/pic18f25k50.h"
   697  0000                     T2CON equ 0FBAh ;# 
   698                           # 9024 "/opt/microchip/xc8/v1.11/include/pic18f25k50.h"
   699  0000                     PR2 equ 0FBBh ;# 
   700                           # 9043 "/opt/microchip/xc8/v1.11/include/pic18f25k50.h"
   701  0000                     TMR2 equ 0FBCh ;# 
   702                           # 9062 "/opt/microchip/xc8/v1.11/include/pic18f25k50.h"
   703  0000                     CCP1CON equ 0FBDh ;# 
   704                           # 9067 "/opt/microchip/xc8/v1.11/include/pic18f25k50.h"
   705  0000                     ECCP1CON equ 0FBDh ;# 
   706                           # 9253 "/opt/microchip/xc8/v1.11/include/pic18f25k50.h"
   707  0000                     CCPR1 equ 0FBEh ;# 
   708                           # 9259 "/opt/microchip/xc8/v1.11/include/pic18f25k50.h"
   709  0000                     CCPR1L equ 0FBEh ;# 
   710                           # 9278 "/opt/microchip/xc8/v1.11/include/pic18f25k50.h"
   711  0000                     CCPR1H equ 0FBFh ;# 
   712                           # 9297 "/opt/microchip/xc8/v1.11/include/pic18f25k50.h"
   713  0000                     ADCON2 equ 0FC0h ;# 
   714                           # 9367 "/opt/microchip/xc8/v1.11/include/pic18f25k50.h"
   715  0000                     ADCON1 equ 0FC1h ;# 
   716                           # 9434 "/opt/microchip/xc8/v1.11/include/pic18f25k50.h"
   717  0000                     ADCON0 equ 0FC2h ;# 
   718                           # 9519 "/opt/microchip/xc8/v1.11/include/pic18f25k50.h"
   719  0000                     ADRESL equ 0FC3h ;# 
   720                           # 9525 "/opt/microchip/xc8/v1.11/include/pic18f25k50.h"
   721  0000                     ADRESH equ 0FC4h ;# 
   722                           # 9531 "/opt/microchip/xc8/v1.11/include/pic18f25k50.h"
   723  0000                     SSP1CON2 equ 0FC5h ;# 
   724                           # 9536 "/opt/microchip/xc8/v1.11/include/pic18f25k50.h"
   725  0000                     SSPCON2 equ 0FC5h ;# 
   726                           # 9974 "/opt/microchip/xc8/v1.11/include/pic18f25k50.h"
   727  0000                     SSP1CON1 equ 0FC6h ;# 
   728                           # 9979 "/opt/microchip/xc8/v1.11/include/pic18f25k50.h"
   729  0000                     SSPCON equ 0FC6h ;# 
   730                           # 9983 "/opt/microchip/xc8/v1.11/include/pic18f25k50.h"
   731  0000                     SSP1CON equ 0FC6h ;# 
   732                           # 9987 "/opt/microchip/xc8/v1.11/include/pic18f25k50.h"
   733  0000                     SSPCON1 equ 0FC6h ;# 
   734                           # 10527 "/opt/microchip/xc8/v1.11/include/pic18f25k50.h"
   735  0000                     SSP1STAT equ 0FC7h ;# 
   736                           # 10532 "/opt/microchip/xc8/v1.11/include/pic18f25k50.h"
   737  0000                     SSPSTAT equ 0FC7h ;# 
   738                           # 11186 "/opt/microchip/xc8/v1.11/include/pic18f25k50.h"
   739  0000                     SSP1ADD equ 0FC8h ;# 
   740                           # 11191 "/opt/microchip/xc8/v1.11/include/pic18f25k50.h"
   741  0000                     SSPADD equ 0FC8h ;# 
   742                           # 11607 "/opt/microchip/xc8/v1.11/include/pic18f25k50.h"
   743  0000                     SSP1BUF equ 0FC9h ;# 
   744                           # 11612 "/opt/microchip/xc8/v1.11/include/pic18f25k50.h"
   745  0000                     SSPBUF equ 0FC9h ;# 
   746                           # 11644 "/opt/microchip/xc8/v1.11/include/pic18f25k50.h"
   747  0000                     SSP1MSK equ 0FCAh ;# 
   748                           # 11649 "/opt/microchip/xc8/v1.11/include/pic18f25k50.h"
   749  0000                     SSPMSK equ 0FCAh ;# 
   750                           # 11781 "/opt/microchip/xc8/v1.11/include/pic18f25k50.h"
   751  0000                     SSP1CON3 equ 0FCBh ;# 
   752                           # 11786 "/opt/microchip/xc8/v1.11/include/pic18f25k50.h"
   753  0000                     SSPCON3 equ 0FCBh ;# 
   754                           # 11902 "/opt/microchip/xc8/v1.11/include/pic18f25k50.h"
   755  0000                     T1GCON equ 0FCCh ;# 
   756                           # 12032 "/opt/microchip/xc8/v1.11/include/pic18f25k50.h"
   757  0000                     T1CON equ 0FCDh ;# 
   758                           # 12144 "/opt/microchip/xc8/v1.11/include/pic18f25k50.h"
   759  0000                     TMR1 equ 0FCEh ;# 
   760                           # 12150 "/opt/microchip/xc8/v1.11/include/pic18f25k50.h"
   761  0000                     TMR1L equ 0FCEh ;# 
   762                           # 12169 "/opt/microchip/xc8/v1.11/include/pic18f25k50.h"
   763  0000                     TMR1H equ 0FCFh ;# 
   764                           # 12188 "/opt/microchip/xc8/v1.11/include/pic18f25k50.h"
   765  0000                     RCON equ 0FD0h ;# 
   766                           # 12320 "/opt/microchip/xc8/v1.11/include/pic18f25k50.h"
   767  0000                     WDTCON equ 0FD1h ;# 
   768                           # 12347 "/opt/microchip/xc8/v1.11/include/pic18f25k50.h"
   769  0000                     OSCCON2 equ 0FD2h ;# 
   770                           # 12408 "/opt/microchip/xc8/v1.11/include/pic18f25k50.h"
   771  0000                     OSCCON equ 0FD3h ;# 
   772                           # 12490 "/opt/microchip/xc8/v1.11/include/pic18f25k50.h"
   773  0000                     T0CON equ 0FD5h ;# 
   774                           # 12559 "/opt/microchip/xc8/v1.11/include/pic18f25k50.h"
   775  0000                     TMR0 equ 0FD6h ;# 
   776                           # 12565 "/opt/microchip/xc8/v1.11/include/pic18f25k50.h"
   777  0000                     TMR0L equ 0FD6h ;# 
   778                           # 12584 "/opt/microchip/xc8/v1.11/include/pic18f25k50.h"
   779  0000                     TMR0H equ 0FD7h ;# 
   780                           # 12603 "/opt/microchip/xc8/v1.11/include/pic18f25k50.h"
   781  0000                     STATUS equ 0FD8h ;# 
   782                           # 12681 "/opt/microchip/xc8/v1.11/include/pic18f25k50.h"
   783  0000                     FSR2 equ 0FD9h ;# 
   784                           # 12687 "/opt/microchip/xc8/v1.11/include/pic18f25k50.h"
   785  0000                     FSR2L equ 0FD9h ;# 
   786                           # 12706 "/opt/microchip/xc8/v1.11/include/pic18f25k50.h"
   787  0000                     FSR2H equ 0FDAh ;# 
   788                           # 12712 "/opt/microchip/xc8/v1.11/include/pic18f25k50.h"
   789  0000                     BSR equ 0FE0h ;# 
   790                           # 12718 "/opt/microchip/xc8/v1.11/include/pic18f25k50.h"
   791  0000                     FSR1 equ 0FE1h ;# 
   792                           # 12724 "/opt/microchip/xc8/v1.11/include/pic18f25k50.h"
   793  0000                     FSR1L equ 0FE1h ;# 
   794                           # 12743 "/opt/microchip/xc8/v1.11/include/pic18f25k50.h"
   795  0000                     FSR1H equ 0FE2h ;# 
   796                           # 12749 "/opt/microchip/xc8/v1.11/include/pic18f25k50.h"
   797  0000                     WREG equ 0FE8h ;# 
   798                           # 12768 "/opt/microchip/xc8/v1.11/include/pic18f25k50.h"
   799  0000                     FSR0 equ 0FE9h ;# 
   800                           # 12774 "/opt/microchip/xc8/v1.11/include/pic18f25k50.h"
   801  0000                     FSR0L equ 0FE9h ;# 
   802                           # 12793 "/opt/microchip/xc8/v1.11/include/pic18f25k50.h"
   803  0000                     FSR0H equ 0FEAh ;# 
   804                           # 12799 "/opt/microchip/xc8/v1.11/include/pic18f25k50.h"
   805  0000                     INDF0 equ 0FEFh ;# 
   806                           # 12818 "/opt/microchip/xc8/v1.11/include/pic18f25k50.h"
   807  0000                     INTCON3 equ 0FF0h ;# 
   808                           # 12909 "/opt/microchip/xc8/v1.11/include/pic18f25k50.h"
   809  0000                     INTCON2 equ 0FF1h ;# 
   810                           # 12985 "/opt/microchip/xc8/v1.11/include/pic18f25k50.h"
   811  0000                     INTCON equ 0FF2h ;# 
   812                           # 13111 "/opt/microchip/xc8/v1.11/include/pic18f25k50.h"
   813  0000                     PROD equ 0FF3h ;# 
   814                           # 13117 "/opt/microchip/xc8/v1.11/include/pic18f25k50.h"
   815  0000                     PRODL equ 0FF3h ;# 
   816                           # 13136 "/opt/microchip/xc8/v1.11/include/pic18f25k50.h"
   817  0000                     PRODH equ 0FF4h ;# 
   818                           # 13155 "/opt/microchip/xc8/v1.11/include/pic18f25k50.h"
   819  0000                     TABLAT equ 0FF5h ;# 
   820                           # 13176 "/opt/microchip/xc8/v1.11/include/pic18f25k50.h"
   821  0000                     TBLPTR equ 0FF6h ;# 
   822                           # 13182 "/opt/microchip/xc8/v1.11/include/pic18f25k50.h"
   823  0000                     TBLPTRL equ 0FF6h ;# 
   824                           # 13201 "/opt/microchip/xc8/v1.11/include/pic18f25k50.h"
   825  0000                     TBLPTRH equ 0FF7h ;# 
   826                           # 13220 "/opt/microchip/xc8/v1.11/include/pic18f25k50.h"
   827  0000                     TBLPTRU equ 0FF8h ;# 
   828                           # 13228 "/opt/microchip/xc8/v1.11/include/pic18f25k50.h"
   829  0000                     PCLAT equ 0FF9h ;# 
   830                           # 13235 "/opt/microchip/xc8/v1.11/include/pic18f25k50.h"
   831  0000                     PC equ 0FF9h ;# 
   832                           # 13241 "/opt/microchip/xc8/v1.11/include/pic18f25k50.h"
   833  0000                     PCL equ 0FF9h ;# 
   834                           # 13260 "/opt/microchip/xc8/v1.11/include/pic18f25k50.h"
   835  0000                     PCLATH equ 0FFAh ;# 
   836                           # 13279 "/opt/microchip/xc8/v1.11/include/pic18f25k50.h"
   837  0000                     PCLATU equ 0FFBh ;# 
   838                           # 13285 "/opt/microchip/xc8/v1.11/include/pic18f25k50.h"
   839  0000                     STKPTR equ 0FFCh ;# 
   840                           # 13358 "/opt/microchip/xc8/v1.11/include/pic18f25k50.h"
   841  0000                     TOS equ 0FFDh ;# 
   842                           # 13364 "/opt/microchip/xc8/v1.11/include/pic18f25k50.h"
   843  0000                     TOSL equ 0FFDh ;# 
   844                           # 13383 "/opt/microchip/xc8/v1.11/include/pic18f25k50.h"
   845  0000                     TOSH equ 0FFEh ;# 
   846                           # 13402 "/opt/microchip/xc8/v1.11/include/pic18f25k50.h"
   847  0000                     TOSU equ 0FFFh ;# 
   848                           # 46 "/opt/microchip/xc8/v1.11/include/pic18f25k50.h"
   849  0000                     SRCON1 equ 0F57h ;# 
   850                           # 107 "/opt/microchip/xc8/v1.11/include/pic18f25k50.h"
   851  0000                     SRCON0 equ 0F58h ;# 
   852                           # 177 "/opt/microchip/xc8/v1.11/include/pic18f25k50.h"
   853  0000                     CCPTMRS equ 0F59h ;# 
   854                           # 203 "/opt/microchip/xc8/v1.11/include/pic18f25k50.h"
   855  0000                     VREGCON equ 0F5Ah ;# 
   856                           # 222 "/opt/microchip/xc8/v1.11/include/pic18f25k50.h"
   857  0000                     ANSELA equ 0F5Bh ;# 
   858                           # 266 "/opt/microchip/xc8/v1.11/include/pic18f25k50.h"
   859  0000                     ANSELB equ 0F5Ch ;# 
   860                           # 315 "/opt/microchip/xc8/v1.11/include/pic18f25k50.h"
   861  0000                     ANSELC equ 0F5Dh ;# 
   862                           # 348 "/opt/microchip/xc8/v1.11/include/pic18f25k50.h"
   863  0000                     UCON equ 0F60h ;# 
   864                           # 398 "/opt/microchip/xc8/v1.11/include/pic18f25k50.h"
   865  0000                     USTAT equ 0F61h ;# 
   866                           # 457 "/opt/microchip/xc8/v1.11/include/pic18f25k50.h"
   867  0000                     UCFG equ 0F62h ;# 
   868                           # 538 "/opt/microchip/xc8/v1.11/include/pic18f25k50.h"
   869  0000                     UADDR equ 0F63h ;# 
   870                           # 601 "/opt/microchip/xc8/v1.11/include/pic18f25k50.h"
   871  0000                     UIE equ 0F64h ;# 
   872                           # 656 "/opt/microchip/xc8/v1.11/include/pic18f25k50.h"
   873  0000                     UIR equ 0F65h ;# 
   874                           # 711 "/opt/microchip/xc8/v1.11/include/pic18f25k50.h"
   875  0000                     UEIE equ 0F66h ;# 
   876                           # 761 "/opt/microchip/xc8/v1.11/include/pic18f25k50.h"
   877  0000                     UEIR equ 0F67h ;# 
   878                           # 811 "/opt/microchip/xc8/v1.11/include/pic18f25k50.h"
   879  0000                     UFRM equ 0F68h ;# 
   880                           # 817 "/opt/microchip/xc8/v1.11/include/pic18f25k50.h"
   881  0000                     UFRML equ 0F68h ;# 
   882                           # 894 "/opt/microchip/xc8/v1.11/include/pic18f25k50.h"
   883  0000                     UFRMH equ 0F69h ;# 
   884                           # 933 "/opt/microchip/xc8/v1.11/include/pic18f25k50.h"
   885  0000                     UEP0 equ 0F6Ah ;# 
   886                           # 1064 "/opt/microchip/xc8/v1.11/include/pic18f25k50.h"
   887  0000                     UEP1 equ 0F6Bh ;# 
   888                           # 1195 "/opt/microchip/xc8/v1.11/include/pic18f25k50.h"
   889  0000                     UEP2 equ 0F6Ch ;# 
   890                           # 1326 "/opt/microchip/xc8/v1.11/include/pic18f25k50.h"
   891  0000                     UEP3 equ 0F6Dh ;# 
   892                           # 1457 "/opt/microchip/xc8/v1.11/include/pic18f25k50.h"
   893  0000                     UEP4 equ 0F6Eh ;# 
   894                           # 1588 "/opt/microchip/xc8/v1.11/include/pic18f25k50.h"
   895  0000                     UEP5 equ 0F6Fh ;# 
   896                           # 1719 "/opt/microchip/xc8/v1.11/include/pic18f25k50.h"
   897  0000                     UEP6 equ 0F70h ;# 
   898                           # 1850 "/opt/microchip/xc8/v1.11/include/pic18f25k50.h"
   899  0000                     UEP7 equ 0F71h ;# 
   900                           # 1981 "/opt/microchip/xc8/v1.11/include/pic18f25k50.h"
   901  0000                     UEP8 equ 0F72h ;# 
   902                           # 2068 "/opt/microchip/xc8/v1.11/include/pic18f25k50.h"
   903  0000                     UEP9 equ 0F73h ;# 
   904                           # 2155 "/opt/microchip/xc8/v1.11/include/pic18f25k50.h"
   905  0000                     UEP10 equ 0F74h ;# 
   906                           # 2242 "/opt/microchip/xc8/v1.11/include/pic18f25k50.h"
   907  0000                     UEP11 equ 0F75h ;# 
   908                           # 2329 "/opt/microchip/xc8/v1.11/include/pic18f25k50.h"
   909  0000                     UEP12 equ 0F76h ;# 
   910                           # 2416 "/opt/microchip/xc8/v1.11/include/pic18f25k50.h"
   911  0000                     UEP13 equ 0F77h ;# 
   912                           # 2503 "/opt/microchip/xc8/v1.11/include/pic18f25k50.h"
   913  0000                     UEP14 equ 0F78h ;# 
   914                           # 2590 "/opt/microchip/xc8/v1.11/include/pic18f25k50.h"
   915  0000                     UEP15 equ 0F79h ;# 
   916                           # 2677 "/opt/microchip/xc8/v1.11/include/pic18f25k50.h"
   917  0000                     SLRCON equ 0F7Ah ;# 
   918                           # 2708 "/opt/microchip/xc8/v1.11/include/pic18f25k50.h"
   919  0000                     VREFCON2 equ 0F7Bh ;# 
   920                           # 2759 "/opt/microchip/xc8/v1.11/include/pic18f25k50.h"
   921  0000                     VREFCON1 equ 0F7Ch ;# 
   922                           # 2819 "/opt/microchip/xc8/v1.11/include/pic18f25k50.h"
   923  0000                     VREFCON0 equ 0F7Dh ;# 
   924                           # 2878 "/opt/microchip/xc8/v1.11/include/pic18f25k50.h"
   925  0000                     PMD0 equ 0F7Eh ;# 
   926                           # 2962 "/opt/microchip/xc8/v1.11/include/pic18f25k50.h"
   927  0000                     PMD1 equ 0F7Fh ;# 
   928                           # 3043 "/opt/microchip/xc8/v1.11/include/pic18f25k50.h"
   929  0000                     PORTA equ 0F80h ;# 
   930                           # 3196 "/opt/microchip/xc8/v1.11/include/pic18f25k50.h"
   931  0000                     PORTB equ 0F81h ;# 
   932                           # 3305 "/opt/microchip/xc8/v1.11/include/pic18f25k50.h"
   933  0000                     PORTC equ 0F82h ;# 
   934                           # 3458 "/opt/microchip/xc8/v1.11/include/pic18f25k50.h"
   935  0000                     PORTE equ 0F84h ;# 
   936                           # 3691 "/opt/microchip/xc8/v1.11/include/pic18f25k50.h"
   937  0000                     IOCB equ 0F86h ;# 
   938                           # 3729 "/opt/microchip/xc8/v1.11/include/pic18f25k50.h"
   939  0000                     IOCC equ 0F87h ;# 
   940                           # 3785 "/opt/microchip/xc8/v1.11/include/pic18f25k50.h"
   941  0000                     CTMUICON equ 0F88h ;# 
   942                           # 3860 "/opt/microchip/xc8/v1.11/include/pic18f25k50.h"
   943  0000                     LATA equ 0F89h ;# 
   944                           # 3992 "/opt/microchip/xc8/v1.11/include/pic18f25k50.h"
   945  0000                     LATB equ 0F8Ah ;# 
   946                           # 4124 "/opt/microchip/xc8/v1.11/include/pic18f25k50.h"
   947  0000                     LATC equ 0F8Bh ;# 
   948                           # 4251 "/opt/microchip/xc8/v1.11/include/pic18f25k50.h"
   949  0000                     CTMUCONL equ 0F8Eh ;# 
   950                           # 4256 "/opt/microchip/xc8/v1.11/include/pic18f25k50.h"
   951  0000                     CTMUCON1 equ 0F8Eh ;# 
   952                           # 4404 "/opt/microchip/xc8/v1.11/include/pic18f25k50.h"
   953  0000                     CTMUCONH equ 0F8Fh ;# 
   954                           # 4409 "/opt/microchip/xc8/v1.11/include/pic18f25k50.h"
   955  0000                     CTMUCON0 equ 0F8Fh ;# 
   956                           # 4559 "/opt/microchip/xc8/v1.11/include/pic18f25k50.h"
   957  0000                     CCPR2 equ 0F90h ;# 
   958                           # 4565 "/opt/microchip/xc8/v1.11/include/pic18f25k50.h"
   959  0000                     CCPR2L equ 0F90h ;# 
   960                           # 4584 "/opt/microchip/xc8/v1.11/include/pic18f25k50.h"
   961  0000                     CCPR2H equ 0F91h ;# 
   962                           # 4603 "/opt/microchip/xc8/v1.11/include/pic18f25k50.h"
   963  0000                     TRISA equ 0F92h ;# 
   964                           # 4608 "/opt/microchip/xc8/v1.11/include/pic18f25k50.h"
   965  0000                     DDRA equ 0F92h ;# 
   966                           # 4812 "/opt/microchip/xc8/v1.11/include/pic18f25k50.h"
   967  0000                     TRISB equ 0F93h ;# 
   968                           # 4817 "/opt/microchip/xc8/v1.11/include/pic18f25k50.h"
   969  0000                     DDRB equ 0F93h ;# 
   970                           # 5033 "/opt/microchip/xc8/v1.11/include/pic18f25k50.h"
   971  0000                     TRISC equ 0F94h ;# 
   972                           # 5038 "/opt/microchip/xc8/v1.11/include/pic18f25k50.h"
   973  0000                     DDRC equ 0F94h ;# 
   974                           # 5228 "/opt/microchip/xc8/v1.11/include/pic18f25k50.h"
   975  0000                     CCP2CON equ 0F97h ;# 
   976                           # 5233 "/opt/microchip/xc8/v1.11/include/pic18f25k50.h"
   977  0000                     ECCP2CON equ 0F97h ;# 
   978                           # 5383 "/opt/microchip/xc8/v1.11/include/pic18f25k50.h"
   979  0000                     CM1CON0 equ 0F98h ;# 
   980                           # 5505 "/opt/microchip/xc8/v1.11/include/pic18f25k50.h"
   981  0000                     CM2CON0 equ 0F99h ;# 
   982                           # 5627 "/opt/microchip/xc8/v1.11/include/pic18f25k50.h"
   983  0000                     CM2CON1 equ 0F9Ah ;# 
   984                           # 5688 "/opt/microchip/xc8/v1.11/include/pic18f25k50.h"
   985  0000                     OSCTUNE equ 0F9Bh ;# 
   986                           # 5757 "/opt/microchip/xc8/v1.11/include/pic18f25k50.h"
   987  0000                     HLVDCON equ 0F9Ch ;# 
   988                           # 5826 "/opt/microchip/xc8/v1.11/include/pic18f25k50.h"
   989  0000                     PIE1 equ 0F9Dh ;# 
   990                           # 5924 "/opt/microchip/xc8/v1.11/include/pic18f25k50.h"
   991  0000                     PIR1 equ 0F9Eh ;# 
   992                           # 6022 "/opt/microchip/xc8/v1.11/include/pic18f25k50.h"
   993  0000                     IPR1 equ 0F9Fh ;# 
   994                           # 6120 "/opt/microchip/xc8/v1.11/include/pic18f25k50.h"
   995  0000                     PIE2 equ 0FA0h ;# 
   996                           # 6218 "/opt/microchip/xc8/v1.11/include/pic18f25k50.h"
   997  0000                     PIR2 equ 0FA1h ;# 
   998                           # 6316 "/opt/microchip/xc8/v1.11/include/pic18f25k50.h"
   999  0000                     IPR2 equ 0FA2h ;# 
  1000                           # 6414 "/opt/microchip/xc8/v1.11/include/pic18f25k50.h"
  1001  0000                     PIE3 equ 0FA3h ;# 
  1002                           # 6495 "/opt/microchip/xc8/v1.11/include/pic18f25k50.h"
  1003  0000                     PIR3 equ 0FA4h ;# 
  1004                           # 6541 "/opt/microchip/xc8/v1.11/include/pic18f25k50.h"
  1005  0000                     IPR3 equ 0FA5h ;# 
  1006                           # 6587 "/opt/microchip/xc8/v1.11/include/pic18f25k50.h"
  1007  0000                     EECON1 equ 0FA6h ;# 
  1008                           # 6652 "/opt/microchip/xc8/v1.11/include/pic18f25k50.h"
  1009  0000                     EECON2 equ 0FA7h ;# 
  1010                           # 6671 "/opt/microchip/xc8/v1.11/include/pic18f25k50.h"
  1011  0000                     EEDATA equ 0FA8h ;# 
  1012                           # 6677 "/opt/microchip/xc8/v1.11/include/pic18f25k50.h"
  1013  0000                     EEADR equ 0FA9h ;# 
  1014                           # 6683 "/opt/microchip/xc8/v1.11/include/pic18f25k50.h"
  1015  0000                     RCSTA1 equ 0FABh ;# 
  1016                           # 6688 "/opt/microchip/xc8/v1.11/include/pic18f25k50.h"
  1017  0000                     RCSTA equ 0FABh ;# 
  1018                           # 6892 "/opt/microchip/xc8/v1.11/include/pic18f25k50.h"
  1019  0000                     TXSTA1 equ 0FACh ;# 
  1020                           # 6897 "/opt/microchip/xc8/v1.11/include/pic18f25k50.h"
  1021  0000                     TXSTA equ 0FACh ;# 
  1022                           # 7189 "/opt/microchip/xc8/v1.11/include/pic18f25k50.h"
  1023  0000                     TXREG1 equ 0FADh ;# 
  1024                           # 7194 "/opt/microchip/xc8/v1.11/include/pic18f25k50.h"
  1025  0000                     TXREG equ 0FADh ;# 
  1026                           # 7226 "/opt/microchip/xc8/v1.11/include/pic18f25k50.h"
  1027  0000                     RCREG1 equ 0FAEh ;# 
  1028                           # 7231 "/opt/microchip/xc8/v1.11/include/pic18f25k50.h"
  1029  0000                     RCREG equ 0FAEh ;# 
  1030                           # 7263 "/opt/microchip/xc8/v1.11/include/pic18f25k50.h"
  1031  0000                     SPBRG1 equ 0FAFh ;# 
  1032                           # 7268 "/opt/microchip/xc8/v1.11/include/pic18f25k50.h"
  1033  0000                     SPBRG equ 0FAFh ;# 
  1034                           # 7400 "/opt/microchip/xc8/v1.11/include/pic18f25k50.h"
  1035  0000                     SPBRGH1 equ 0FB0h ;# 
  1036                           # 7405 "/opt/microchip/xc8/v1.11/include/pic18f25k50.h"
  1037  0000                     SPBRGH equ 0FB0h ;# 
  1038                           # 7537 "/opt/microchip/xc8/v1.11/include/pic18f25k50.h"
  1039  0000                     T3CON equ 0FB1h ;# 
  1040                           # 7667 "/opt/microchip/xc8/v1.11/include/pic18f25k50.h"
  1041  0000                     TMR3 equ 0FB2h ;# 
  1042                           # 7673 "/opt/microchip/xc8/v1.11/include/pic18f25k50.h"
  1043  0000                     TMR3L equ 0FB2h ;# 
  1044                           # 7692 "/opt/microchip/xc8/v1.11/include/pic18f25k50.h"
  1045  0000                     TMR3H equ 0FB3h ;# 
  1046                           # 7711 "/opt/microchip/xc8/v1.11/include/pic18f25k50.h"
  1047  0000                     T3GCON equ 0FB4h ;# 
  1048                           # 7841 "/opt/microchip/xc8/v1.11/include/pic18f25k50.h"
  1049  0000                     ACTCON equ 0FB5h ;# 
  1050                           # 7846 "/opt/microchip/xc8/v1.11/include/pic18f25k50.h"
  1051  0000                     STCON equ 0FB5h ;# 
  1052                           # 8046 "/opt/microchip/xc8/v1.11/include/pic18f25k50.h"
  1053  0000                     ECCP1AS equ 0FB6h ;# 
  1054                           # 8179 "/opt/microchip/xc8/v1.11/include/pic18f25k50.h"
  1055  0000                     PWM1CON equ 0FB7h ;# 
  1056                           # 8184 "/opt/microchip/xc8/v1.11/include/pic18f25k50.h"
  1057  0000                     ECCP1DEL equ 0FB7h ;# 
  1058                           # 8328 "/opt/microchip/xc8/v1.11/include/pic18f25k50.h"
  1059  0000                     BAUDCON1 equ 0FB8h ;# 
  1060                           # 8333 "/opt/microchip/xc8/v1.11/include/pic18f25k50.h"
  1061  0000                     BAUDCON equ 0FB8h ;# 
  1062                           # 8337 "/opt/microchip/xc8/v1.11/include/pic18f25k50.h"
  1063  0000                     BAUDCTL equ 0FB8h ;# 
  1064                           # 8879 "/opt/microchip/xc8/v1.11/include/pic18f25k50.h"
  1065  0000                     PSTR1CON equ 0FB9h ;# 
  1066                           # 8954 "/opt/microchip/xc8/v1.11/include/pic18f25k50.h"
  1067  0000                     T2CON equ 0FBAh ;# 
  1068                           # 9024 "/opt/microchip/xc8/v1.11/include/pic18f25k50.h"
  1069  0000                     PR2 equ 0FBBh ;# 
  1070                           # 9043 "/opt/microchip/xc8/v1.11/include/pic18f25k50.h"
  1071  0000                     TMR2 equ 0FBCh ;# 
  1072                           # 9062 "/opt/microchip/xc8/v1.11/include/pic18f25k50.h"
  1073  0000                     CCP1CON equ 0FBDh ;# 
  1074                           # 9067 "/opt/microchip/xc8/v1.11/include/pic18f25k50.h"
  1075  0000                     ECCP1CON equ 0FBDh ;# 
  1076                           # 9253 "/opt/microchip/xc8/v1.11/include/pic18f25k50.h"
  1077  0000                     CCPR1 equ 0FBEh ;# 
  1078                           # 9259 "/opt/microchip/xc8/v1.11/include/pic18f25k50.h"
  1079  0000                     CCPR1L equ 0FBEh ;# 
  1080                           # 9278 "/opt/microchip/xc8/v1.11/include/pic18f25k50.h"
  1081  0000                     CCPR1H equ 0FBFh ;# 
  1082                           # 9297 "/opt/microchip/xc8/v1.11/include/pic18f25k50.h"
  1083  0000                     ADCON2 equ 0FC0h ;# 
  1084                           # 9367 "/opt/microchip/xc8/v1.11/include/pic18f25k50.h"
  1085  0000                     ADCON1 equ 0FC1h ;# 
  1086                           # 9434 "/opt/microchip/xc8/v1.11/include/pic18f25k50.h"
  1087  0000                     ADCON0 equ 0FC2h ;# 
  1088                           # 9519 "/opt/microchip/xc8/v1.11/include/pic18f25k50.h"
  1089  0000                     ADRESL equ 0FC3h ;# 
  1090                           # 9525 "/opt/microchip/xc8/v1.11/include/pic18f25k50.h"
  1091  0000                     ADRESH equ 0FC4h ;# 
  1092                           # 9531 "/opt/microchip/xc8/v1.11/include/pic18f25k50.h"
  1093  0000                     SSP1CON2 equ 0FC5h ;# 
  1094                           # 9536 "/opt/microchip/xc8/v1.11/include/pic18f25k50.h"
  1095  0000                     SSPCON2 equ 0FC5h ;# 
  1096                           # 9974 "/opt/microchip/xc8/v1.11/include/pic18f25k50.h"
  1097  0000                     SSP1CON1 equ 0FC6h ;# 
  1098                           # 9979 "/opt/microchip/xc8/v1.11/include/pic18f25k50.h"
  1099  0000                     SSPCON equ 0FC6h ;# 
  1100                           # 9983 "/opt/microchip/xc8/v1.11/include/pic18f25k50.h"
  1101  0000                     SSP1CON equ 0FC6h ;# 
  1102                           # 9987 "/opt/microchip/xc8/v1.11/include/pic18f25k50.h"
  1103  0000                     SSPCON1 equ 0FC6h ;# 
  1104                           # 10527 "/opt/microchip/xc8/v1.11/include/pic18f25k50.h"
  1105  0000                     SSP1STAT equ 0FC7h ;# 
  1106                           # 10532 "/opt/microchip/xc8/v1.11/include/pic18f25k50.h"
  1107  0000                     SSPSTAT equ 0FC7h ;# 
  1108                           # 11186 "/opt/microchip/xc8/v1.11/include/pic18f25k50.h"
  1109  0000                     SSP1ADD equ 0FC8h ;# 
  1110                           # 11191 "/opt/microchip/xc8/v1.11/include/pic18f25k50.h"
  1111  0000                     SSPADD equ 0FC8h ;# 
  1112                           # 11607 "/opt/microchip/xc8/v1.11/include/pic18f25k50.h"
  1113  0000                     SSP1BUF equ 0FC9h ;# 
  1114                           # 11612 "/opt/microchip/xc8/v1.11/include/pic18f25k50.h"
  1115  0000                     SSPBUF equ 0FC9h ;# 
  1116                           # 11644 "/opt/microchip/xc8/v1.11/include/pic18f25k50.h"
  1117  0000                     SSP1MSK equ 0FCAh ;# 
  1118                           # 11649 "/opt/microchip/xc8/v1.11/include/pic18f25k50.h"
  1119  0000                     SSPMSK equ 0FCAh ;# 
  1120                           # 11781 "/opt/microchip/xc8/v1.11/include/pic18f25k50.h"
  1121  0000                     SSP1CON3 equ 0FCBh ;# 
  1122                           # 11786 "/opt/microchip/xc8/v1.11/include/pic18f25k50.h"
  1123  0000                     SSPCON3 equ 0FCBh ;# 
  1124                           # 11902 "/opt/microchip/xc8/v1.11/include/pic18f25k50.h"
  1125  0000                     T1GCON equ 0FCCh ;# 
  1126                           # 12032 "/opt/microchip/xc8/v1.11/include/pic18f25k50.h"
  1127  0000                     T1CON equ 0FCDh ;# 
  1128                           # 12144 "/opt/microchip/xc8/v1.11/include/pic18f25k50.h"
  1129  0000                     TMR1 equ 0FCEh ;# 
  1130                           # 12150 "/opt/microchip/xc8/v1.11/include/pic18f25k50.h"
  1131  0000                     TMR1L equ 0FCEh ;# 
  1132                           # 12169 "/opt/microchip/xc8/v1.11/include/pic18f25k50.h"
  1133  0000                     TMR1H equ 0FCFh ;# 
  1134                           # 12188 "/opt/microchip/xc8/v1.11/include/pic18f25k50.h"
  1135  0000                     RCON equ 0FD0h ;# 
  1136                           # 12320 "/opt/microchip/xc8/v1.11/include/pic18f25k50.h"
  1137  0000                     WDTCON equ 0FD1h ;# 
  1138                           # 12347 "/opt/microchip/xc8/v1.11/include/pic18f25k50.h"
  1139  0000                     OSCCON2 equ 0FD2h ;# 
  1140                           # 12408 "/opt/microchip/xc8/v1.11/include/pic18f25k50.h"
  1141  0000                     OSCCON equ 0FD3h ;# 
  1142                           # 12490 "/opt/microchip/xc8/v1.11/include/pic18f25k50.h"
  1143  0000                     T0CON equ 0FD5h ;# 
  1144                           # 12559 "/opt/microchip/xc8/v1.11/include/pic18f25k50.h"
  1145  0000                     TMR0 equ 0FD6h ;# 
  1146                           # 12565 "/opt/microchip/xc8/v1.11/include/pic18f25k50.h"
  1147  0000                     TMR0L equ 0FD6h ;# 
  1148                           # 12584 "/opt/microchip/xc8/v1.11/include/pic18f25k50.h"
  1149  0000                     TMR0H equ 0FD7h ;# 
  1150                           # 12603 "/opt/microchip/xc8/v1.11/include/pic18f25k50.h"
  1151  0000                     STATUS equ 0FD8h ;# 
  1152                           # 12681 "/opt/microchip/xc8/v1.11/include/pic18f25k50.h"
  1153  0000                     FSR2 equ 0FD9h ;# 
  1154                           # 12687 "/opt/microchip/xc8/v1.11/include/pic18f25k50.h"
  1155  0000                     FSR2L equ 0FD9h ;# 
  1156                           # 12706 "/opt/microchip/xc8/v1.11/include/pic18f25k50.h"
  1157  0000                     FSR2H equ 0FDAh ;# 
  1158                           # 12712 "/opt/microchip/xc8/v1.11/include/pic18f25k50.h"
  1159  0000                     BSR equ 0FE0h ;# 
  1160                           # 12718 "/opt/microchip/xc8/v1.11/include/pic18f25k50.h"
  1161  0000                     FSR1 equ 0FE1h ;# 
  1162                           # 12724 "/opt/microchip/xc8/v1.11/include/pic18f25k50.h"
  1163  0000                     FSR1L equ 0FE1h ;# 
  1164                           # 12743 "/opt/microchip/xc8/v1.11/include/pic18f25k50.h"
  1165  0000                     FSR1H equ 0FE2h ;# 
  1166                           # 12749 "/opt/microchip/xc8/v1.11/include/pic18f25k50.h"
  1167  0000                     WREG equ 0FE8h ;# 
  1168                           # 12768 "/opt/microchip/xc8/v1.11/include/pic18f25k50.h"
  1169  0000                     FSR0 equ 0FE9h ;# 
  1170                           # 12774 "/opt/microchip/xc8/v1.11/include/pic18f25k50.h"
  1171  0000                     FSR0L equ 0FE9h ;# 
  1172                           # 12793 "/opt/microchip/xc8/v1.11/include/pic18f25k50.h"
  1173  0000                     FSR0H equ 0FEAh ;# 
  1174                           # 12799 "/opt/microchip/xc8/v1.11/include/pic18f25k50.h"
  1175  0000                     INDF0 equ 0FEFh ;# 
  1176                           # 12818 "/opt/microchip/xc8/v1.11/include/pic18f25k50.h"
  1177  0000                     INTCON3 equ 0FF0h ;# 
  1178                           # 12909 "/opt/microchip/xc8/v1.11/include/pic18f25k50.h"
  1179  0000                     INTCON2 equ 0FF1h ;# 
  1180                           # 12985 "/opt/microchip/xc8/v1.11/include/pic18f25k50.h"
  1181  0000                     INTCON equ 0FF2h ;# 
  1182                           # 13111 "/opt/microchip/xc8/v1.11/include/pic18f25k50.h"
  1183  0000                     PROD equ 0FF3h ;# 
  1184                           # 13117 "/opt/microchip/xc8/v1.11/include/pic18f25k50.h"
  1185  0000                     PRODL equ 0FF3h ;# 
  1186                           # 13136 "/opt/microchip/xc8/v1.11/include/pic18f25k50.h"
  1187  0000                     PRODH equ 0FF4h ;# 
  1188                           # 13155 "/opt/microchip/xc8/v1.11/include/pic18f25k50.h"
  1189  0000                     TABLAT equ 0FF5h ;# 
  1190                           # 13176 "/opt/microchip/xc8/v1.11/include/pic18f25k50.h"
  1191  0000                     TBLPTR equ 0FF6h ;# 
  1192                           # 13182 "/opt/microchip/xc8/v1.11/include/pic18f25k50.h"
  1193  0000                     TBLPTRL equ 0FF6h ;# 
  1194                           # 13201 "/opt/microchip/xc8/v1.11/include/pic18f25k50.h"
  1195  0000                     TBLPTRH equ 0FF7h ;# 
  1196                           # 13220 "/opt/microchip/xc8/v1.11/include/pic18f25k50.h"
  1197  0000                     TBLPTRU equ 0FF8h ;# 
  1198                           # 13228 "/opt/microchip/xc8/v1.11/include/pic18f25k50.h"
  1199  0000                     PCLAT equ 0FF9h ;# 
  1200                           # 13235 "/opt/microchip/xc8/v1.11/include/pic18f25k50.h"
  1201  0000                     PC equ 0FF9h ;# 
  1202                           # 13241 "/opt/microchip/xc8/v1.11/include/pic18f25k50.h"
  1203  0000                     PCL equ 0FF9h ;# 
  1204                           # 13260 "/opt/microchip/xc8/v1.11/include/pic18f25k50.h"
  1205  0000                     PCLATH equ 0FFAh ;# 
  1206                           # 13279 "/opt/microchip/xc8/v1.11/include/pic18f25k50.h"
  1207  0000                     PCLATU equ 0FFBh ;# 
  1208                           # 13285 "/opt/microchip/xc8/v1.11/include/pic18f25k50.h"
  1209  0000                     STKPTR equ 0FFCh ;# 
  1210                           # 13358 "/opt/microchip/xc8/v1.11/include/pic18f25k50.h"
  1211  0000                     TOS equ 0FFDh ;# 
  1212                           # 13364 "/opt/microchip/xc8/v1.11/include/pic18f25k50.h"
  1213  0000                     TOSL equ 0FFDh ;# 
  1214                           # 13383 "/opt/microchip/xc8/v1.11/include/pic18f25k50.h"
  1215  0000                     TOSH equ 0FFEh ;# 
  1216                           # 13402 "/opt/microchip/xc8/v1.11/include/pic18f25k50.h"
  1217  0000                     TOSU equ 0FFFh ;# 
  1218                           	FNCALL	_main,_InitRobot
  1219                           	FNCALL	_main,_moveRobot
  1220                           	FNCALL	_main,_Delay10KTCYx
  1221                           	FNCALL	_InitRobot,_initClockCDRBot
  1222                           	FNCALL	_InitRobot,_mInitMotors
  1223                           	FNCALL	_moveRobot,_moveRobotSpeed
  1224                           	FNCALL	_mInitMotors,_OpenTimer0
  1225                           	FNCALL	_moveRobotSpeed,_setServoSpeed
  1226                           	FNCALL	_setServoSpeed,___wmul
  1227                           	FNROOT	_main
  1228                           	FNCALL	_ISR,_servoInterrupt
  1229                           	FNCALL	_servoInterrupt,_WriteTimer0
  1230                           	FNCALL	intlevel2,_ISR
  1231                           	global	intlevel2
  1232                           	FNROOT	intlevel2
  1233                           	global	main@F7180
  1234                           	global	_Servo_PWM
  1235                           	global	_zeroServo
  1236                           psect	idataCOMRAM,class=CODE,space=0,delta=1
  1237                           global __pidataCOMRAM
  1238  001516                     __pidataCOMRAM:
  1239                           	file	"../main.c"
  1240                           	line	18
  1241                           
  1242                           ;initializer for main@F7180
  1243  001516  0066               	dw	(066h)&0ffffh
  1244  001518  0062               	dw	(062h)&0ffffh
  1245  00151A  006C               	dw	(06Ch)&0ffffh
  1246  00151C  0072               	dw	(072h)&0ffffh
  1247  00151E  0073               	dw	(073h)&0ffffh
  1248                           	file	"../motors.c"
  1249                           	line	6
  1250                           
  1251                           ;initializer for _Servo_PWM
  1252  001520  4650               	dw	(04650h)&0ffffh
  1253  001522  4650               	dw	(04650h)&0ffffh
  1254                           	line	16
  1255                           
  1256                           ;initializer for _zeroServo
  1257  001524  4650               	dw	(04650h)&0ffffh
  1258  001526  4650               	dw	(04650h)&0ffffh
  1259                           	global	_enableServo
  1260                           	global	_Ticks4NextInterrupt
  1261                           	global	_Servo
  1262                           	global	_Servo_Idx
  1263                           	global	_INTCONbits
  1264  0000                     _INTCONbits	set	0xFF2
  1265                           	global	_LATB
  1266  0000                     _LATB	set	0xF8A
  1267                           	global	_LATBbits
  1268  0000                     _LATBbits	set	0xF8A
  1269                           	global	_LATC
  1270  0000                     _LATC	set	0xF8B
  1271                           	global	_LATCbits
  1272  0000                     _LATCbits	set	0xF8B
  1273                           	global	_OSCCON
  1274  0000                     _OSCCON	set	0xFD3
  1275                           	global	_OSCCON2
  1276  0000                     _OSCCON2	set	0xFD2
  1277                           	global	_OSCCON2bits
  1278  0000                     _OSCCON2bits	set	0xFD2
  1279                           	global	_OSCTUNE
  1280  0000                     _OSCTUNE	set	0xF9B
  1281                           	global	_PORTBbits
  1282  0000                     _PORTBbits	set	0xF81
  1283                           	global	_RCONbits
  1284  0000                     _RCONbits	set	0xFD0
  1285                           	global	_T0CON
  1286  0000                     _T0CON	set	0xFD5
  1287                           	global	_T0CONbits
  1288  0000                     _T0CONbits	set	0xFD5
  1289                           	global	_TMR0H
  1290  0000                     _TMR0H	set	0xFD7
  1291                           	global	_TMR0L
  1292  0000                     _TMR0L	set	0xFD6
  1293                           	global	_TRISB
  1294  0000                     _TRISB	set	0xF93
  1295                           	global	_TRISBbits
  1296  0000                     _TRISBbits	set	0xF93
  1297                           	global	_TRISC
  1298  0000                     _TRISC	set	0xF94
  1299                           ; #config settings
  1300                           global __CFG_PLLSEL$PLL3X
  1301  0000                     __CFG_PLLSEL$PLL3X equ 0x0
  1302                           global __CFG_CFGPLLEN$OFF
  1303  0000                     __CFG_CFGPLLEN$OFF equ 0x0
  1304                           global __CFG_CPUDIV$NOCLKDIV
  1305  0000                     __CFG_CPUDIV$NOCLKDIV equ 0x0
  1306                           global __CFG_LS48MHZ$SYS48X8
  1307  0000                     __CFG_LS48MHZ$SYS48X8 equ 0x0
  1308                           global __CFG_IESO$OFF
  1309  0000                     __CFG_IESO$OFF equ 0x0
  1310                           global __CFG_FOSC$INTOSCIO
  1311  0000                     __CFG_FOSC$INTOSCIO equ 0x0
  1312                           global __CFG_FCMEN$OFF
  1313  0000                     __CFG_FCMEN$OFF equ 0x0
  1314                           global __CFG_PCLKEN$OFF
  1315  0000                     __CFG_PCLKEN$OFF equ 0x0
  1316                           global __CFG_BOREN$OFF
  1317  0000                     __CFG_BOREN$OFF equ 0x0
  1318                           global __CFG_nPWRTEN$OFF
  1319  0000                     __CFG_nPWRTEN$OFF equ 0x0
  1320                           global __CFG_nLPBOR$OFF
  1321  0000                     __CFG_nLPBOR$OFF equ 0x0
  1322                           global __CFG_BORV$220
  1323  0000                     __CFG_BORV$220 equ 0x0
  1324                           global __CFG_WDTPS$32768
  1325  0000                     __CFG_WDTPS$32768 equ 0x0
  1326                           global __CFG_WDTEN$OFF
  1327  0000                     __CFG_WDTEN$OFF equ 0x0
  1328                           global __CFG_CCP2MX$RC1
  1329  0000                     __CFG_CCP2MX$RC1 equ 0x0
  1330                           global __CFG_PBADEN$OFF
  1331  0000                     __CFG_PBADEN$OFF equ 0x0
  1332                           global __CFG_MCLRE$ON
  1333  0000                     __CFG_MCLRE$ON equ 0x0
  1334                           global __CFG_SDOMX$RC7
  1335  0000                     __CFG_SDOMX$RC7 equ 0x0
  1336                           global __CFG_T3CMX$RC0
  1337  0000                     __CFG_T3CMX$RC0 equ 0x0
  1338                           global __CFG_STVREN$OFF
  1339  0000                     __CFG_STVREN$OFF equ 0x0
  1340                           global __CFG_ICPRT$OFF
  1341  0000                     __CFG_ICPRT$OFF equ 0x0
  1342                           global __CFG_XINST$OFF
  1343  0000                     __CFG_XINST$OFF equ 0x0
  1344                           global __CFG_LVP$OFF
  1345  0000                     __CFG_LVP$OFF equ 0x0
  1346                           global __CFG_CP0$OFF
  1347  0000                     __CFG_CP0$OFF equ 0x0
  1348                           global __CFG_CP1$OFF
  1349  0000                     __CFG_CP1$OFF equ 0x0
  1350                           global __CFG_CP2$OFF
  1351  0000                     __CFG_CP2$OFF equ 0x0
  1352                           global __CFG_CP3$OFF
  1353  0000                     __CFG_CP3$OFF equ 0x0
  1354                           global __CFG_CPD$OFF
  1355  0000                     __CFG_CPD$OFF equ 0x0
  1356                           global __CFG_CPB$OFF
  1357  0000                     __CFG_CPB$OFF equ 0x0
  1358                           global __CFG_WRT0$OFF
  1359  0000                     __CFG_WRT0$OFF equ 0x0
  1360                           global __CFG_WRT1$OFF
  1361  0000                     __CFG_WRT1$OFF equ 0x0
  1362                           global __CFG_WRT2$OFF
  1363  0000                     __CFG_WRT2$OFF equ 0x0
  1364                           global __CFG_WRT3$OFF
  1365  0000                     __CFG_WRT3$OFF equ 0x0
  1366                           global __CFG_WRTB$OFF
  1367  0000                     __CFG_WRTB$OFF equ 0x0
  1368                           global __CFG_WRTC$OFF
  1369  0000                     __CFG_WRTC$OFF equ 0x0
  1370                           global __CFG_WRTD$OFF
  1371  0000                     __CFG_WRTD$OFF equ 0x0
  1372                           global __CFG_EBTR0$OFF
  1373  0000                     __CFG_EBTR0$OFF equ 0x0
  1374                           global __CFG_EBTR1$OFF
  1375  0000                     __CFG_EBTR1$OFF equ 0x0
  1376                           global __CFG_EBTR2$OFF
  1377  0000                     __CFG_EBTR2$OFF equ 0x0
  1378                           global __CFG_EBTR3$OFF
  1379  0000                     __CFG_EBTR3$OFF equ 0x0
  1380                           global __CFG_EBTRB$OFF
  1381  0000                     __CFG_EBTRB$OFF equ 0x0
  1382                           	file	"/tmp/cgtrcq76J"
  1383                           	line	#
  1384                           psect	cinit,class=CODE,delta=1,reloc=2
  1385                           global __pcinit
  1386  00144E                     __pcinit:
  1387                           global start_initialization
  1388  00144E                     start_initialization:
  1389                           
  1390                           global __initialization
  1391  00144E                     __initialization:
  1392                           psect	bssCOMRAM,class=COMRAM,space=1
  1393                           global __pbssCOMRAM
  1394  000051                     __pbssCOMRAM:
  1395                           	global	_enableServo
  1396  000051                     _enableServo:
  1397  000051                            ds      4
  1398                           	global	_Ticks4NextInterrupt
  1399  000055                     _Ticks4NextInterrupt:
  1400  000055                            ds      2
  1401                           	global	_Servo
  1402  000057                     _Servo:
  1403  000057                            ds      1
  1404                           	global	_Servo_Idx
  1405  000058                     _Servo_Idx:
  1406  000058                            ds      1
  1407                           psect	dataCOMRAM,class=COMRAM,space=1
  1408                           global __pdataCOMRAM
  1409  00003F                     __pdataCOMRAM:
  1410                           	file	"../main.c"
  1411                           	line	18
  1412  00003F                     main@F7180:
  1413  00003F                            ds      10
  1414                           psect	dataCOMRAM
  1415                           	file	"../motors.c"
  1416                           	line	6
  1417                           	global	_Servo_PWM
  1418  000049                     _Servo_PWM:
  1419  000049                            ds      4
  1420                           psect	dataCOMRAM
  1421                           	file	"../motors.c"
  1422                           	line	16
  1423                           	global	_zeroServo
  1424  00004D                     _zeroServo:
  1425  00004D                            ds      4
  1426                           psect	cinit
  1427                           ; Clear objects allocated to COMRAM (8 bytes)
  1428                           	global __pbssCOMRAM
  1429  00144E  EE00  F051         lfsr	0,__pbssCOMRAM
  1430  001452  0E08               movlw	8
  1431  001454                     clear_0:
  1432  001454  6AEE               clrf	postinc0,c
  1433  001456  06E8               decf	wreg
  1434  001458  E1FD               bnz	clear_0
  1435                           ; Initialize objects allocated to COMRAM (18 bytes)
  1436                           	global __pidataCOMRAM
  1437                           	; load TBLPTR registers with __pidataCOMRAM
  1438  00145A  0E16               	movlw	low (__pidataCOMRAM)
  1439  00145C  6EF6               	movwf	tblptrl
  1440  00145E  0E15               	movlw	high(__pidataCOMRAM)
  1441  001460  6EF7               	movwf	tblptrh
  1442  001462  0E00               	movlw	low highword(__pidataCOMRAM)
  1443  001464  6EF8               	movwf	tblptru
  1444  001466  EE00  F03F         	lfsr	0,__pdataCOMRAM
  1445  00146A  EE10 F012          	lfsr	1,18
  1446  00146E                     	copy_data0:
  1447  00146E  0009               	tblrd	*+
  1448  001470  CFF5 FFEE          	movff	tablat, postinc0
  1449  001474  50E5               	movf	postdec1,w
  1450  001476  50E1               	movf	fsr1l,w
  1451  001478  E1FA               	bnz	copy_data0
  1452                           psect cinit,class=CODE,delta=1
  1453                           global end_of_initialization,__end_of__initialization
  1454                           
  1455                           ;End of C runtime variable initialization code
  1456                           
  1457  00147A                     end_of_initialization:
  1458  00147A                     __end_of__initialization:movlb 0
  1459  00147C  EFB9  F009         goto _main	;jump to C main() function
  1460                           psect	cstackCOMRAM,class=COMRAM,space=1
  1461                           global __pcstackCOMRAM
  1462  000001                     __pcstackCOMRAM:
  1463  000001                     ?_InitRobot:	; 0 bytes @ 0x0
  1464  000001                     ?_servoInterrupt:	; 0 bytes @ 0x0
  1465  000001                     ?_mInitMotors:	; 0 bytes @ 0x0
  1466                           	global	?_WriteTimer0
  1467  000001                     ?_WriteTimer0:	; 0 bytes @ 0x0
  1468  000001                     ?_main:	; 0 bytes @ 0x0
  1469  000001                     ?_ISR:	; 0 bytes @ 0x0
  1470  000001                     ?_initClockCDRBot:	; 0 bytes @ 0x0
  1471                           	global	WriteTimer0@timer0
  1472  000001                     WriteTimer0@timer0:	; 2 bytes @ 0x0
  1473  000001                     	ds   2
  1474  000003                     ??_WriteTimer0:	; 0 bytes @ 0x2
  1475                           	global	WriteTimer0@timer
  1476  000003                     WriteTimer0@timer:	; 2 bytes @ 0x2
  1477  000003                     	ds   2
  1478  000005                     ??_servoInterrupt:	; 0 bytes @ 0x4
  1479  000005                     	ds   2
  1480  000007                     ??_ISR:	; 0 bytes @ 0x6
  1481  000007                     	ds   14
  1482                           	global	?_Delay10KTCYx
  1483  000015                     ?_Delay10KTCYx:	; 0 bytes @ 0x14
  1484                           	global	?_OpenTimer0
  1485  000015                     ?_OpenTimer0:	; 0 bytes @ 0x14
  1486  000015                     ??_initClockCDRBot:	; 0 bytes @ 0x14
  1487                           	global	?___wmul
  1488  000015                     ?___wmul:	; 2 bytes @ 0x14
  1489                           	global	OpenTimer0@config
  1490  000015                     OpenTimer0@config:	; 1 bytes @ 0x14
  1491                           	global	Delay10KTCYx@unit
  1492  000015                     Delay10KTCYx@unit:	; 1 bytes @ 0x14
  1493                           	global	___wmul@multiplier
  1494  000015                     ___wmul@multiplier:	; 2 bytes @ 0x14
  1495  000015                     	ds   1
  1496  000016                     ??_Delay10KTCYx:	; 0 bytes @ 0x15
  1497  000016                     ??_mInitMotors:	; 0 bytes @ 0x15
  1498  000016                     ??_OpenTimer0:	; 0 bytes @ 0x15
  1499  000016                     	ds   1
  1500  000017                     ??_InitRobot:	; 0 bytes @ 0x16
  1501                           	global	___wmul@multiplicand
  1502  000017                     ___wmul@multiplicand:	; 2 bytes @ 0x16
  1503  000017                     	ds   2
  1504  000019                     ??___wmul:	; 0 bytes @ 0x18
  1505                           	global	___wmul@product
  1506  000019                     ___wmul@product:	; 2 bytes @ 0x18
  1507  000019                     	ds   2
  1508                           	global	?_setServoSpeed
  1509  00001B                     ?_setServoSpeed:	; 0 bytes @ 0x1A
  1510                           	global	setServoSpeed@servoID
  1511  00001B                     setServoSpeed@servoID:	; 2 bytes @ 0x1A
  1512  00001B                     	ds   2
  1513                           	global	setServoSpeed@speed
  1514  00001D                     setServoSpeed@speed:	; 2 bytes @ 0x1C
  1515  00001D                     	ds   2
  1516  00001F                     ??_setServoSpeed:	; 0 bytes @ 0x1E
  1517  00001F                     	ds   8
  1518                           	global	?_moveRobotSpeed
  1519  000027                     ?_moveRobotSpeed:	; 0 bytes @ 0x26
  1520                           	global	moveRobotSpeed@direction
  1521  000027                     moveRobotSpeed@direction:	; 2 bytes @ 0x26
  1522  000027                     	ds   2
  1523                           	global	moveRobotSpeed@speed
  1524  000029                     moveRobotSpeed@speed:	; 2 bytes @ 0x28
  1525  000029                     	ds   2
  1526  00002B                     ??_moveRobotSpeed:	; 0 bytes @ 0x2A
  1527  00002B                     	ds   2
  1528                           	global	moveRobotSpeed@speedLeftServo
  1529  00002D                     moveRobotSpeed@speedLeftServo:	; 2 bytes @ 0x2C
  1530  00002D                     	ds   2
  1531                           	global	moveRobotSpeed@speedRightServo
  1532  00002F                     moveRobotSpeed@speedRightServo:	; 2 bytes @ 0x2E
  1533  00002F                     	ds   2
  1534                           	global	?_moveRobot
  1535  000031                     ?_moveRobot:	; 0 bytes @ 0x30
  1536                           	global	moveRobot@direction
  1537  000031                     moveRobot@direction:	; 2 bytes @ 0x30
  1538  000031                     	ds   2
  1539  000033                     ??_moveRobot:	; 0 bytes @ 0x32
  1540  000033                     ??_main:	; 0 bytes @ 0x32
  1541  000033                     	ds   1
  1542                           	global	main@prueba
  1543  000034                     main@prueba:	; 10 bytes @ 0x33
  1544  000034                     	ds   10
  1545                           	global	main@i
  1546  00003E                     main@i:	; 1 bytes @ 0x3D
  1547  00003E                     	ds   1
  1548                           ;!
  1549                           ;!Data Sizes:
  1550                           ;!    Strings     0
  1551                           ;!    Constant    0
  1552                           ;!    Data        18
  1553                           ;!    BSS         8
  1554                           ;!    Persistent  0
  1555                           ;!    Stack       0
  1556                           ;!
  1557                           ;!Auto Spaces:
  1558                           ;!    Space          Size  Autos    Used
  1559                           ;!    COMRAM           95     62      88
  1560                           ;!    BANK0           160      0       0
  1561                           ;!    BANK1           256      0       0
  1562                           ;!    BANK2           256      0       0
  1563                           ;!    BANK3           256      0       0
  1564                           ;!    BANK4           256      0       0
  1565                           ;!    BANK5           256      0       0
  1566                           ;!    BANK6           256      0       0
  1567                           ;!    BANK7           256      0       0
  1568                           
  1569                           ;!
  1570                           ;!Pointer List with Targets:
  1571                           ;!
  1572                           ;!    ?___wmul	unsigned int  size(2) Largest target is 0
  1573                           ;!
  1574                           
  1575                           
  1576                           ;!
  1577                           ;!Critical Paths under _main in COMRAM
  1578                           ;!
  1579                           ;!    _main->_moveRobot
  1580                           ;!    _InitRobot->_mInitMotors
  1581                           ;!    _moveRobot->_moveRobotSpeed
  1582                           ;!    _mInitMotors->_OpenTimer0
  1583                           ;!    _moveRobotSpeed->_setServoSpeed
  1584                           ;!    _setServoSpeed->___wmul
  1585                           ;!
  1586                           ;!Critical Paths under _ISR in COMRAM
  1587                           ;!
  1588                           ;!    _ISR->_servoInterrupt
  1589                           ;!    _servoInterrupt->_WriteTimer0
  1590                           ;!
  1591                           ;!Critical Paths under _main in BANK0
  1592                           ;!
  1593                           ;!    None.
  1594                           ;!
  1595                           ;!Critical Paths under _ISR in BANK0
  1596                           ;!
  1597                           ;!    None.
  1598                           ;!
  1599                           ;!Critical Paths under _main in BANK1
  1600                           ;!
  1601                           ;!    None.
  1602                           ;!
  1603                           ;!Critical Paths under _ISR in BANK1
  1604                           ;!
  1605                           ;!    None.
  1606                           ;!
  1607                           ;!Critical Paths under _main in BANK2
  1608                           ;!
  1609                           ;!    None.
  1610                           ;!
  1611                           ;!Critical Paths under _ISR in BANK2
  1612                           ;!
  1613                           ;!    None.
  1614                           ;!
  1615                           ;!Critical Paths under _main in BANK3
  1616                           ;!
  1617                           ;!    None.
  1618                           ;!
  1619                           ;!Critical Paths under _ISR in BANK3
  1620                           ;!
  1621                           ;!    None.
  1622                           ;!
  1623                           ;!Critical Paths under _main in BANK4
  1624                           ;!
  1625                           ;!    None.
  1626                           ;!
  1627                           ;!Critical Paths under _ISR in BANK4
  1628                           ;!
  1629                           ;!    None.
  1630                           ;!
  1631                           ;!Critical Paths under _main in BANK5
  1632                           ;!
  1633                           ;!    None.
  1634                           ;!
  1635                           ;!Critical Paths under _ISR in BANK5
  1636                           ;!
  1637                           ;!    None.
  1638                           ;!
  1639                           ;!Critical Paths under _main in BANK6
  1640                           ;!
  1641                           ;!    None.
  1642                           ;!
  1643                           ;!Critical Paths under _ISR in BANK6
  1644                           ;!
  1645                           ;!    None.
  1646                           ;!
  1647                           ;!Critical Paths under _main in BANK7
  1648                           ;!
  1649                           ;!    None.
  1650                           ;!
  1651                           ;!Critical Paths under _ISR in BANK7
  1652                           ;!
  1653                           ;!    None.
  1654                           
  1655 ;;
  1656 ;;Main: autosize = 0, tempsize = 1, incstack = 0, save=0
  1657 ;;
  1658                           
  1659                           ;!
  1660                           ;!Call Graph Tables:
  1661                           ;!
  1662                           ;! ---------------------------------------------------------------------------------
  1663                           ;! (Depth) Function   	        Calls       Base Space   Used Autos Params    Refs
  1664                           ;! ---------------------------------------------------------------------------------
  1665                           ;! (0) _main                                                12    12      0     435
  1666                           ;!                                             50 COMRAM    12    12      0
  1667                           ;!                          _InitRobot
  1668                           ;!                          _moveRobot
  1669                           ;!                       _Delay10KTCYx
  1670                           ;! ---------------------------------------------------------------------------------
  1671                           ;! (1) _InitRobot                                            0     0      0      30
  1672                           ;!                    _initClockCDRBot
  1673                           ;!                        _mInitMotors
  1674                           ;! ---------------------------------------------------------------------------------
  1675                           ;! (1) _moveRobot                                            2     0      2     345
  1676                           ;!                                             48 COMRAM     2     0      2
  1677                           ;!                     _moveRobotSpeed
  1678                           ;! ---------------------------------------------------------------------------------
  1679                           ;! (1) _Delay10KTCYx                                         2     1      1      15
  1680                           ;!                                             20 COMRAM     2     1      1
  1681                           ;! ---------------------------------------------------------------------------------
  1682                           ;! (2) _initClockCDRBot                                      0     0      0       0
  1683                           ;! ---------------------------------------------------------------------------------
  1684                           ;! (2) _mInitMotors                                          1     1      0      30
  1685                           ;!                                             21 COMRAM     1     1      0
  1686                           ;!                         _OpenTimer0
  1687                           ;! ---------------------------------------------------------------------------------
  1688                           ;! (2) _moveRobotSpeed                                      10     6      4     330
  1689                           ;!                                             38 COMRAM    10     6      4
  1690                           ;!                      _setServoSpeed
  1691                           ;! ---------------------------------------------------------------------------------
  1692                           ;! (3) _setServoSpeed                                       12     8      4     165
  1693                           ;!                                             26 COMRAM    12     8      4
  1694                           ;!                             ___wmul
  1695                           ;! ---------------------------------------------------------------------------------
  1696                           ;! (3) _OpenTimer0                                           1     0      1      30
  1697                           ;!                                             20 COMRAM     1     0      1
  1698                           ;! ---------------------------------------------------------------------------------
  1699                           ;! (4) ___wmul                                               6     2      4      60
  1700                           ;!                                             20 COMRAM     6     2      4
  1701                           ;! ---------------------------------------------------------------------------------
  1702                           ;! Estimated maximum stack depth 4
  1703                           ;! ---------------------------------------------------------------------------------
  1704                           ;! (Depth) Function   	        Calls       Base Space   Used Autos Params    Refs
  1705                           ;! ---------------------------------------------------------------------------------
  1706                           ;! (5) _ISR                                                 14    14      0      45
  1707                           ;!                                              6 COMRAM    14    14      0
  1708                           ;!                     _servoInterrupt
  1709                           ;! ---------------------------------------------------------------------------------
  1710                           ;! (6) _servoInterrupt                                       2     2      0      45
  1711                           ;!                                              4 COMRAM     2     2      0
  1712                           ;!                        _WriteTimer0
  1713                           ;! ---------------------------------------------------------------------------------
  1714                           ;! (7) _WriteTimer0                                          4     2      2      45
  1715                           ;!                                              0 COMRAM     4     2      2
  1716                           ;! ---------------------------------------------------------------------------------
  1717                           ;! Estimated maximum stack depth 7
  1718                           ;! ---------------------------------------------------------------------------------
  1719                           ;!
  1720                           ;! Call Graph Graphs:
  1721                           ;!
  1722                           ;! _main (ROOT)
  1723                           ;!   _InitRobot
  1724                           ;!     _initClockCDRBot
  1725                           ;!     _mInitMotors
  1726                           ;!       _OpenTimer0
  1727                           ;!   _moveRobot
  1728                           ;!     _moveRobotSpeed
  1729                           ;!       _setServoSpeed
  1730                           ;!         ___wmul
  1731                           ;!   _Delay10KTCYx
  1732                           ;!
  1733                           ;! _ISR (ROOT)
  1734                           ;!   _servoInterrupt
  1735                           ;!     _WriteTimer0
  1736                           ;!
  1737                           
  1738                           ;! Address spaces:
  1739                           
  1740                           ;!Name               Size   Autos  Total    Cost      Usage
  1741                           ;!BIGRAM             7FF      0       0      21        0.0%
  1742                           ;!EEDATA             100      0       0       0        0.0%
  1743                           ;!BITBANK7           100      0       0      19        0.0%
  1744                           ;!BANK7              100      0       0      20        0.0%
  1745                           ;!BITBANK6           100      0       0      17        0.0%
  1746                           ;!BANK6              100      0       0      18        0.0%
  1747                           ;!BITBANK5           100      0       0      15        0.0%
  1748                           ;!BANK5              100      0       0      16        0.0%
  1749                           ;!BITBANK4           100      0       0      13        0.0%
  1750                           ;!BANK4              100      0       0      14        0.0%
  1751                           ;!BITBANK3           100      0       0      11        0.0%
  1752                           ;!BANK3              100      0       0      12        0.0%
  1753                           ;!BITBANK2           100      0       0       9        0.0%
  1754                           ;!BANK2              100      0       0      10        0.0%
  1755                           ;!BITBANK1           100      0       0       7        0.0%
  1756                           ;!BANK1              100      0       0       8        0.0%
  1757                           ;!BITBANK0            A0      0       0       4        0.0%
  1758                           ;!BANK0               A0      0       0       5        0.0%
  1759                           ;!BITCOMRAM           5F      0       0       0        0.0%
  1760                           ;!COMRAM              5F     3E      58       1       92.6%
  1761                           ;!BITSFR_1             0      0       0      40        0.0%
  1762                           ;!SFR_1                0      0       0      40        0.0%
  1763                           ;!BITSFR               0      0       0      40        0.0%
  1764                           ;!SFR                  0      0       0      40        0.0%
  1765                           ;!STACK                0      0       A       2        0.0%
  1766                           ;!NULL                 0      0       0       0        0.0%
  1767                           ;!ABS                  0      0      58       6        0.0%
  1768                           ;!DATA                 0      0      62       3        0.0%
  1769                           ;!CODE                 0      0       0       0        0.0%
  1770                           
  1771                           	global	_main
  1772                           
  1773 ;; *************** function _main *****************
  1774 ;; Defined at:
  1775 ;;		line 16 in file "../main.c"
  1776 ;; Parameters:    Size  Location     Type
  1777 ;;		None
  1778 ;; Auto vars:     Size  Location     Type
  1779 ;;  prueba         10   51[COMRAM] int [5]
  1780 ;;  i               1   61[COMRAM] unsigned char 
  1781 ;; Return value:  Size  Location     Type
  1782 ;;		None               void
  1783 ;; Registers used:
  1784 ;;		wreg, fsr0l, fsr0h, fsr1l, fsr1h, fsr2l, fsr2h, status,2, status,0, pclat, tosl, structret, tblptrl, tblptrh, tblptr
       u, prodl, prodh, bsr, cstack
  1785 ;; Tracked objects:
  1786 ;;		On entry : 0/0
  1787 ;;		On exit  : 0/0
  1788 ;;		Unchanged: 0/0
  1789 ;; Data sizes:     COMRAM   BANK0   BANK1   BANK2   BANK3   BANK4   BANK5   BANK6   BANK7
  1790 ;;      Params:         0       0       0       0       0       0       0       0       0
  1791 ;;      Locals:        11       0       0       0       0       0       0       0       0
  1792 ;;      Temps:          1       0       0       0       0       0       0       0       0
  1793 ;;      Totals:        12       0       0       0       0       0       0       0       0
  1794 ;;Total ram usage:       12 bytes
  1795 ;; Hardware stack levels required when called:    7
  1796 ;; This function calls:
  1797 ;;		_InitRobot
  1798 ;;		_moveRobot
  1799 ;;		_Delay10KTCYx
  1800 ;; This function is called by:
  1801 ;;		Startup code after reset
  1802 ;; This function uses a non-reentrant model
  1803 ;;
  1804                           psect	text0,class=CODE,space=0,reloc=2
  1805                           global __ptext0
  1806  001372                     __ptext0:
  1807                           psect	text0
  1808                           	file	"../main.c"
  1809                           	global	__size_of_main
  1810  0000                     	__size_of_main	equ	__end_of_main-_main
  1811                           	
  1812  001372                     _main:
  1813                           	opt	stack 24
  1814                           	line	17
  1815                           	
  1816  001372                     l752:
  1817                           ;main.c: 17: char i = 4;
  1818  001372  6E33               	movwf	(??_main+0+0)&0ffh,c
  1819  001374  0E04               	movlw	low(04h)
  1820  001376  6E3E               	movwf	((c:main@i)),c
  1821  001378  5033               	movf	(??_main+0+0)&0ffh,c,w
  1822                           	line	18
  1823                           	
  1824  00137A                     l754:
  1825                           ;main.c: 18: int prueba[5] = { 'f', 'b', 'l', 'r', 's' };
  1826  00137A  EE20  F03F         	lfsr	2,(main@F7180)
  1827  00137E  EE10  F034         	lfsr	1,(main@prueba)
  1828  001382  0E0A               	movlw	10
  1829  001384                     u11:
  1830  001384  CFDE FFE6          	movff	postinc2,postinc1
  1831  001388  2EE8               	decfsz	wreg
  1832  00138A  D7FC               	goto	u11
  1833                           	line	20
  1834                           	
  1835  00138C                     l756:
  1836                           ;main.c: 20: InitRobot();
  1837  00138C  EC5E  F00A         	call	_InitRobot	;wreg free
  1838  001390  D000               	goto	l758
  1839                           	line	23
  1840                           ;main.c: 22: for (;; )
  1841                           	
  1842  001392                     l17:
  1843                           	line	24
  1844                           	
  1845  001392                     l758:
  1846                           ;main.c: 23: {
  1847                           ;main.c: 24: if ( !PORTBbits.RB4 )
  1848                           	
  1849  001392  B881               	btfsc	((c:3969)),c,4	;volatile
  1850  001394  D001               	goto	u21
  1851  001396  D001               	goto	u20
  1852  001398                     u21:
  1853  001398  D00C               	goto	l764
  1854  00139A                     u20:
  1855                           	line	26
  1856                           	
  1857  00139A                     l760:
  1858                           ;main.c: 25: {
  1859                           ;main.c: 26: if ( ++i > 4 )
  1860  00139A  2A3E               	incf	((c:main@i)),c
  1861  00139C  0E04               	movlw	(05h-1)
  1862  00139E  643E               	cpfsgt	((c:main@i))&0ffh
  1863  0013A0  D001               	goto	u31
  1864  0013A2  D001               	goto	u30
  1865  0013A4                     u31:
  1866  0013A4  D006               	goto	l764
  1867  0013A6                     u30:
  1868                           	line	27
  1869                           	
  1870  0013A6                     l762:
  1871                           ;main.c: 27: i = 0;
  1872  0013A6  6E33               	movwf	(??_main+0+0)&0ffh,c
  1873  0013A8  0E00               	movlw	low(0)
  1874  0013AA  6E3E               	movwf	((c:main@i)),c
  1875  0013AC  5033               	movf	(??_main+0+0)&0ffh,c,w
  1876  0013AE  D001               	goto	l764
  1877                           	
  1878  0013B0                     l19:
  1879  0013B0  D000               	goto	l764
  1880                           	line	29
  1881                           	
  1882  0013B2                     l18:
  1883                           	line	30
  1884                           	
  1885  0013B2                     l764:
  1886                           ;main.c: 29: }
  1887                           ;main.c: 30: moveRobot(prueba[i]);
  1888  0013B2  503E               	movf	((c:main@i)),c,w
  1889  0013B4  0D02               	mullw	02h
  1890  0013B6  0E34               	movlw	low((c:main@prueba))
  1891  0013B8  24F3               	addwf	(prodl),c,w
  1892  0013BA  6ED9               	movwf	c:fsr2l
  1893  0013BC  0E00               	movlw	high((c:main@prueba))
  1894  0013BE  20F4               	addwfc	prod+1,w
  1895  0013C0  6EDA               	movwf	1+c:fsr2l
  1896  0013C2  CFDE F031          	movff	postinc2,(c:?_moveRobot)
  1897  0013C6  CFDD F032          	movff	postdec2,(c:?_moveRobot+1)
  1898  0013CA  EC76  F00A         	call	_moveRobot	;wreg free
  1899                           	line	31
  1900                           	
  1901  0013CE                     l766:
  1902                           ;main.c: 31: LATCbits.LATC0 = !LATCbits.LATC0;;
  1903                           	
  1904  0013CE  A08B               	btfss	((c:3979)),c,0	;volatile
  1905  0013D0  D001               	goto	u41
  1906  0013D2  D002               	goto	u40
  1907  0013D4                     u41:
  1908  0013D4  0E01               	movlw	1
  1909  0013D6  D001               	goto	u46
  1910  0013D8                     u40:
  1911  0013D8  0E00               	movlw	0
  1912  0013DA                     u46:
  1913  0013DA  6E33               	movwf	(??_main+0+0)&0ffh,c
  1914  0013DC  508B               	movf	((c:3979)),c,w	;volatile
  1915  0013DE  1833               	xorwf	((??_main+0+0)),c,w
  1916  0013E0  0BFE               	andlw	not ((1<<1)-1)
  1917  0013E2  1833               	xorwf	((??_main+0+0)),c,w
  1918  0013E4  6E8B               	movwf	((c:3979)),c	;volatile
  1919                           	line	32
  1920                           	
  1921  0013E6                     l768:
  1922                           ;main.c: 32: Delay10KTCYx(200);
  1923  0013E6  6E33               	movwf	(??_main+0+0)&0ffh,c
  1924  0013E8  0EC8               	movlw	low(0C8h)
  1925  0013EA  6E15               	movwf	((c:?_Delay10KTCYx)),c
  1926  0013EC  5033               	movf	(??_main+0+0)&0ffh,c,w
  1927  0013EE  EC6A  F00A         	call	_Delay10KTCYx	;wreg free
  1928                           	line	33
  1929                           	
  1930  0013F2                     l770:
  1931                           ;main.c: 33: Delay10KTCYx(200);
  1932  0013F2  6E33               	movwf	(??_main+0+0)&0ffh,c
  1933  0013F4  0EC8               	movlw	low(0C8h)
  1934  0013F6  6E15               	movwf	((c:?_Delay10KTCYx)),c
  1935  0013F8  5033               	movf	(??_main+0+0)&0ffh,c,w
  1936  0013FA  EC6A  F00A         	call	_Delay10KTCYx	;wreg free
  1937                           	line	34
  1938                           	
  1939  0013FE                     l772:
  1940                           ;main.c: 34: Delay10KTCYx(200);
  1941  0013FE  6E33               	movwf	(??_main+0+0)&0ffh,c
  1942  001400  0EC8               	movlw	low(0C8h)
  1943  001402  6E15               	movwf	((c:?_Delay10KTCYx)),c
  1944  001404  5033               	movf	(??_main+0+0)&0ffh,c,w
  1945  001406  EC6A  F00A         	call	_Delay10KTCYx	;wreg free
  1946                           	line	35
  1947                           ;main.c: 35: }
  1948  00140A  D7C3               	goto	l758
  1949                           	
  1950  00140C                     l20:
  1951                           	line	36
  1952                           	
  1953  00140C                     l21:
  1954                           	global	start
  1955  00140C  EF3F  F008         	goto	start
  1956                           	opt stack 0
  1957                           GLOBAL	__end_of_main
  1958  001410                     	__end_of_main:
  1959                           	signat	_main,88
  1960                           	global	_InitRobot
  1961                           
  1962 ;; *************** function _InitRobot *****************
  1963 ;; Defined at:
  1964 ;;		line 48 in file "../cdrbot.c"
  1965 ;; Parameters:    Size  Location     Type
  1966 ;;		None
  1967 ;; Auto vars:     Size  Location     Type
  1968 ;;		None
  1969 ;; Return value:  Size  Location     Type
  1970 ;;		None               void
  1971 ;; Registers used:
  1972 ;;		wreg, fsr0l, fsr0h, fsr1l, fsr1h, fsr2l, fsr2h, status,2, status,0, pclat, tosl, structret, tblptrl, tblptrh, tblptr
       u, prodl, prodh, bsr, cstack
  1973 ;; Tracked objects:
  1974 ;;		On entry : 0/0
  1975 ;;		On exit  : 0/0
  1976 ;;		Unchanged: 0/0
  1977 ;; Data sizes:     COMRAM   BANK0   BANK1   BANK2   BANK3   BANK4   BANK5   BANK6   BANK7
  1978 ;;      Params:         0       0       0       0       0       0       0       0       0
  1979 ;;      Locals:         0       0       0       0       0       0       0       0       0
  1980 ;;      Temps:          0       0       0       0       0       0       0       0       0
  1981 ;;      Totals:         0       0       0       0       0       0       0       0       0
  1982 ;;Total ram usage:        0 bytes
  1983 ;; Hardware stack levels used:    1
  1984 ;; Hardware stack levels required when called:    5
  1985 ;; This function calls:
  1986 ;;		_initClockCDRBot
  1987 ;;		_mInitMotors
  1988 ;; This function is called by:
  1989 ;;		_main
  1990 ;; This function uses a non-reentrant model
  1991 ;;
  1992                           psect	text1,class=CODE,space=0,reloc=2
  1993                           global __ptext1
  1994  0014BC                     __ptext1:
  1995                           psect	text1
  1996                           	file	"../cdrbot.c"
  1997                           	line	48
  1998                           	global	__size_of_InitRobot
  1999  0000                     	__size_of_InitRobot	equ	__end_of_InitRobot-_InitRobot
  2000                           	
  2001  0014BC                     _InitRobot:
  2002                           	opt	stack 25
  2003                           	line	49
  2004                           	
  2005  0014BC                     l774:
  2006                           ;cdrbot.c: 49: initClockCDRBot();
  2007  0014BC  EC51  F00A         	call	_initClockCDRBot	;wreg free
  2008                           	line	50
  2009                           	
  2010  0014C0                     l776:
  2011                           ;cdrbot.c: 50: LATC &= 0xFE; TRISC &= 0xFE;;
  2012  0014C0  908B               	bcf	(0+(0/8)+(c:3979)),c,(0)&7	;volatile
  2013                           	
  2014  0014C2                     l778:
  2015  0014C2  9094               	bcf	(0+(0/8)+(c:3988)),c,(0)&7	;volatile
  2016                           	line	51
  2017                           	
  2018  0014C4                     l780:
  2019                           ;cdrbot.c: 51: TRISBbits.TRISB4 = 1;;
  2020  0014C4  8893               	bsf	((c:3987)),c,4	;volatile
  2021                           	line	52
  2022                           	
  2023  0014C6                     l782:
  2024                           ;cdrbot.c: 52: LATB &= 0xFC; TRISB &= 0xFC;;
  2025  0014C6  0EFC               	movlw	(0FCh)&0ffh
  2026  0014C8  168A               	andwf	((c:3978)),c	;volatile
  2027                           	
  2028  0014CA                     l784:
  2029  0014CA  0EFC               	movlw	(0FCh)&0ffh
  2030  0014CC  1693               	andwf	((c:3987)),c	;volatile
  2031                           	line	53
  2032                           ;cdrbot.c: 53: mInitMotors();
  2033  0014CE  EC81  F00A         	call	_mInitMotors	;wreg free
  2034                           	line	54
  2035                           	
  2036  0014D2                     l55:
  2037  0014D2  0012               	return
  2038                           	opt stack 0
  2039                           GLOBAL	__end_of_InitRobot
  2040  0014D4                     	__end_of_InitRobot:
  2041                           	signat	_InitRobot,88
  2042                           	global	_moveRobot
  2043                           
  2044 ;; *************** function _moveRobot *****************
  2045 ;; Defined at:
  2046 ;;		line 91 in file "../cdrbot.c"
  2047 ;; Parameters:    Size  Location     Type
  2048 ;;  direction       2   48[COMRAM] unsigned int 
  2049 ;; Auto vars:     Size  Location     Type
  2050 ;;		None
  2051 ;; Return value:  Size  Location     Type
  2052 ;;		None               void
  2053 ;; Registers used:
  2054 ;;		wreg, fsr0l, fsr0h, fsr1l, fsr1h, fsr2l, fsr2h, status,2, status,0, pclat, tosl, structret, tblptrl, tblptrh, tblptr
       u, prodl, prodh, bsr, cstack
  2055 ;; Tracked objects:
  2056 ;;		On entry : 0/0
  2057 ;;		On exit  : 0/0
  2058 ;;		Unchanged: 0/0
  2059 ;; Data sizes:     COMRAM   BANK0   BANK1   BANK2   BANK3   BANK4   BANK5   BANK6   BANK7
  2060 ;;      Params:         2       0       0       0       0       0       0       0       0
  2061 ;;      Locals:         0       0       0       0       0       0       0       0       0
  2062 ;;      Temps:          0       0       0       0       0       0       0       0       0
  2063 ;;      Totals:         2       0       0       0       0       0       0       0       0
  2064 ;;Total ram usage:        2 bytes
  2065 ;; Hardware stack levels used:    1
  2066 ;; Hardware stack levels required when called:    6
  2067 ;; This function calls:
  2068 ;;		_moveRobotSpeed
  2069 ;; This function is called by:
  2070 ;;		_main
  2071 ;; This function uses a non-reentrant model
  2072 ;;
  2073                           psect	text2,class=CODE,space=0,reloc=2
  2074                           global __ptext2
  2075  0014EC                     __ptext2:
  2076                           psect	text2
  2077                           	file	"../cdrbot.c"
  2078                           	line	91
  2079                           	global	__size_of_moveRobot
  2080  0000                     	__size_of_moveRobot	equ	__end_of_moveRobot-_moveRobot
  2081                           	
  2082  0014EC                     _moveRobot:
  2083                           	opt	stack 24
  2084                           	line	92
  2085                           	
  2086  0014EC                     l786:
  2087                           ;cdrbot.c: 92: moveRobotSpeed(direction, 255);
  2088  0014EC  C031  F027         	movff	(c:moveRobot@direction),(c:?_moveRobotSpeed)
  2089  0014F0  C032  F028         	movff	(c:moveRobot@direction+1),(c:?_moveRobotSpeed+1)
  2090  0014F4  0E00               	movlw	high(0FFh)
  2091  0014F6  6E2A               	movwf	(1+((c:?_moveRobotSpeed)+02h)),c
  2092  0014F8  0EFF               	movlw	low(0FFh)
  2093  0014FA  6E29               	movwf	(0+((c:?_moveRobotSpeed)+02h)),c
  2094  0014FC  ECCF  F008         	call	_moveRobotSpeed	;wreg free
  2095                           	line	93
  2096                           	
  2097  001500                     l68:
  2098  001500  0012               	return
  2099                           	opt stack 0
  2100                           GLOBAL	__end_of_moveRobot
  2101  001502                     	__end_of_moveRobot:
  2102                           	signat	_moveRobot,4216
  2103                           	global	_Delay10KTCYx
  2104                           
  2105 ;; *************** function _Delay10KTCYx *****************
  2106 ;; Defined at:
  2107 ;;		line 9 in file "../common/d10ktcyx.c"
  2108 ;; Parameters:    Size  Location     Type
  2109 ;;  unit            1   20[COMRAM] unsigned char 
  2110 ;; Auto vars:     Size  Location     Type
  2111 ;;		None
  2112 ;; Return value:  Size  Location     Type
  2113 ;;		None               void
  2114 ;; Registers used:
  2115 ;;		wreg
  2116 ;; Tracked objects:
  2117 ;;		On entry : 0/0
  2118 ;;		On exit  : 0/0
  2119 ;;		Unchanged: 0/0
  2120 ;; Data sizes:     COMRAM   BANK0   BANK1   BANK2   BANK3   BANK4   BANK5   BANK6   BANK7
  2121 ;;      Params:         1       0       0       0       0       0       0       0       0
  2122 ;;      Locals:         0       0       0       0       0       0       0       0       0
  2123 ;;      Temps:          1       0       0       0       0       0       0       0       0
  2124 ;;      Totals:         2       0       0       0       0       0       0       0       0
  2125 ;;Total ram usage:        2 bytes
  2126 ;; Hardware stack levels used:    1
  2127 ;; Hardware stack levels required when called:    3
  2128 ;; This function calls:
  2129 ;;		Nothing
  2130 ;; This function is called by:
  2131 ;;		_main
  2132 ;; This function uses a non-reentrant model
  2133 ;;
  2134                           psect	text3,class=CODE,space=0,reloc=2
  2135                           global __ptext3
  2136  0014D4                     __ptext3:
  2137                           psect	text3
  2138                           	file	"../common/d10ktcyx.c"
  2139                           	line	9
  2140                           	global	__size_of_Delay10KTCYx
  2141  0000                     	__size_of_Delay10KTCYx	equ	__end_of_Delay10KTCYx-_Delay10KTCYx
  2142                           	
  2143  0014D4                     _Delay10KTCYx:
  2144                           	opt	stack 27
  2145                           	line	10
  2146                           	
  2147  0014D4                     l682:
  2148                           	line	11
  2149                           	
  2150  0014D4                     l788:
  2151  0014D4  0E0D               	movlw	13
  2152  0014D6  6E16               movwf	(??_Delay10KTCYx+0+0)&0ffh,c,f
  2153  0014D8  0EFB               	movlw	251
  2154  0014DA                     u247:
  2155  0014DA  2EE8               	decfsz	wreg,f
  2156  0014DC  D7FE               	goto	u247
  2157  0014DE  2E16               	decfsz	(??_Delay10KTCYx+0+0)&0ffh,c,f
  2158  0014E0  D7FC               	goto	u247
  2159  0014E2  D000               	nop2
  2160                           
  2161                           	line	12
  2162                           	
  2163  0014E4                     l790:
  2164  0014E4  2E15               	decfsz	((c:Delay10KTCYx@unit)),c
  2165                           	
  2166  0014E6  D7F6               	goto	l682
  2167  0014E8  D000               	goto	l684
  2168                           	
  2169  0014EA                     l683:
  2170                           	line	13
  2171                           	
  2172  0014EA                     l684:
  2173  0014EA  0012               	return
  2174                           	opt stack 0
  2175                           GLOBAL	__end_of_Delay10KTCYx
  2176  0014EC                     	__end_of_Delay10KTCYx:
  2177                           	signat	_Delay10KTCYx,4216
  2178                           	global	_initClockCDRBot
  2179                           
  2180 ;; *************** function _initClockCDRBot *****************
  2181 ;; Defined at:
  2182 ;;		line 25 in file "../cdrbot.c"
  2183 ;; Parameters:    Size  Location     Type
  2184 ;;		None
  2185 ;; Auto vars:     Size  Location     Type
  2186 ;;		None
  2187 ;; Return value:  Size  Location     Type
  2188 ;;		None               void
  2189 ;; Registers used:
  2190 ;;		wreg, status,2
  2191 ;; Tracked objects:
  2192 ;;		On entry : 0/0
  2193 ;;		On exit  : 0/0
  2194 ;;		Unchanged: 0/0
  2195 ;; Data sizes:     COMRAM   BANK0   BANK1   BANK2   BANK3   BANK4   BANK5   BANK6   BANK7
  2196 ;;      Params:         0       0       0       0       0       0       0       0       0
  2197 ;;      Locals:         0       0       0       0       0       0       0       0       0
  2198 ;;      Temps:          0       0       0       0       0       0       0       0       0
  2199 ;;      Totals:         0       0       0       0       0       0       0       0       0
  2200 ;;Total ram usage:        0 bytes
  2201 ;; Hardware stack levels used:    1
  2202 ;; Hardware stack levels required when called:    3
  2203 ;; This function calls:
  2204 ;;		Nothing
  2205 ;; This function is called by:
  2206 ;;		_InitRobot
  2207 ;; This function uses a non-reentrant model
  2208 ;;
  2209                           psect	text4,class=CODE,space=0,reloc=2
  2210                           global __ptext4
  2211  0014A2                     __ptext4:
  2212                           psect	text4
  2213                           	file	"../cdrbot.c"
  2214                           	line	25
  2215                           	global	__size_of_initClockCDRBot
  2216  0000                     	__size_of_initClockCDRBot	equ	__end_of_initClockCDRBot-_initClockCDRBot
  2217                           	
  2218  0014A2                     _initClockCDRBot:
  2219                           	opt	stack 26
  2220                           	line	26
  2221                           	
  2222  0014A2                     l792:
  2223                           ;cdrbot.c: 26: OSCTUNE = 0x80;
  2224  0014A2  0E80               	movlw	low(080h)
  2225  0014A4  6E9B               	movwf	((c:3995)),c	;volatile
  2226                           	line	27
  2227                           ;cdrbot.c: 27: OSCCON = 0x70;
  2228  0014A6  0E70               	movlw	low(070h)
  2229  0014A8  6ED3               	movwf	((c:4051)),c	;volatile
  2230                           	line	28
  2231                           ;cdrbot.c: 28: OSCCON2 = 0x10;
  2232  0014AA  0E10               	movlw	low(010h)
  2233  0014AC  6ED2               	movwf	((c:4050)),c	;volatile
  2234                           	line	29
  2235                           ;cdrbot.c: 29: while ( OSCCON2bits.PLLRDY != 1 );
  2236  0014AE  D000               	goto	l49
  2237                           	
  2238  0014B0                     l50:
  2239                           	
  2240  0014B0                     l49:
  2241                           	
  2242  0014B0  AED2               	btfss	((c:4050)),c,7	;volatile
  2243  0014B2  D001               	goto	u51
  2244  0014B4  D001               	goto	u50
  2245  0014B6                     u51:
  2246  0014B6  D7FC               	goto	l49
  2247  0014B8                     u50:
  2248  0014B8  D000               	goto	l52
  2249                           	
  2250  0014BA                     l51:
  2251                           	line	30
  2252                           	
  2253  0014BA                     l52:
  2254  0014BA  0012               	return
  2255                           	opt stack 0
  2256                           GLOBAL	__end_of_initClockCDRBot
  2257  0014BC                     	__end_of_initClockCDRBot:
  2258                           	signat	_initClockCDRBot,88
  2259                           	global	_mInitMotors
  2260                           
  2261 ;; *************** function _mInitMotors *****************
  2262 ;; Defined at:
  2263 ;;		line 23 in file "../motors.c"
  2264 ;; Parameters:    Size  Location     Type
  2265 ;;		None
  2266 ;; Auto vars:     Size  Location     Type
  2267 ;;		None
  2268 ;; Return value:  Size  Location     Type
  2269 ;;		None               void
  2270 ;; Registers used:
  2271 ;;		wreg, fsr0l, fsr0h, fsr1l, fsr1h, fsr2l, fsr2h, status,2, status,0, pclat, tosl, structret, tblptrl, tblptrh, tblptr
       u, prodl, prodh, bsr, cstack
  2272 ;; Tracked objects:
  2273 ;;		On entry : 0/0
  2274 ;;		On exit  : 0/0
  2275 ;;		Unchanged: 0/0
  2276 ;; Data sizes:     COMRAM   BANK0   BANK1   BANK2   BANK3   BANK4   BANK5   BANK6   BANK7
  2277 ;;      Params:         0       0       0       0       0       0       0       0       0
  2278 ;;      Locals:         0       0       0       0       0       0       0       0       0
  2279 ;;      Temps:          1       0       0       0       0       0       0       0       0
  2280 ;;      Totals:         1       0       0       0       0       0       0       0       0
  2281 ;;Total ram usage:        1 bytes
  2282 ;; Hardware stack levels used:    1
  2283 ;; Hardware stack levels required when called:    4
  2284 ;; This function calls:
  2285 ;;		_OpenTimer0
  2286 ;; This function is called by:
  2287 ;;		_InitRobot
  2288 ;; This function uses a non-reentrant model
  2289 ;;
  2290                           psect	text5,class=CODE,space=0,reloc=2
  2291                           global __ptext5
  2292  001502                     __ptext5:
  2293                           psect	text5
  2294                           	file	"../motors.c"
  2295                           	line	23
  2296                           	global	__size_of_mInitMotors
  2297  0000                     	__size_of_mInitMotors	equ	__end_of_mInitMotors-_mInitMotors
  2298                           	
  2299  001502                     _mInitMotors:
  2300                           	opt	stack 25
  2301                           	line	27
  2302                           	
  2303  001502                     l794:
  2304                           ;motors.c: 24: OpenTimer0(0b11111111 &
  2305                           ;motors.c: 25: 0b10111111 &
  2306                           ;motors.c: 26: 0b11011111 &
  2307                           ;motors.c: 27: 0b11111111);
  2308  001502  6E16               	movwf	(??_mInitMotors+0+0)&0ffh,c
  2309  001504  0E9F               	movlw	low(09Fh)
  2310  001506  6E15               	movwf	((c:?_OpenTimer0)),c
  2311  001508  5016               	movf	(??_mInitMotors+0+0)&0ffh,c,w
  2312  00150A  EC40  F00A         	call	_OpenTimer0	;wreg free
  2313                           	line	29
  2314                           	
  2315  00150E                     l796:
  2316                           ;motors.c: 29: RCONbits.IPEN = 0;
  2317  00150E  9ED0               	bcf	((c:4048)),c,7	;volatile
  2318                           	line	30
  2319                           	
  2320  001510                     l798:
  2321                           ;motors.c: 30: INTCONbits.PEIE = 1;
  2322  001510  8CF2               	bsf	((c:4082)),c,6	;volatile
  2323                           	line	31
  2324                           	
  2325  001512                     l800:
  2326                           ;motors.c: 31: INTCONbits.GIE = 1;
  2327  001512  8EF2               	bsf	((c:4082)),c,7	;volatile
  2328                           	line	32
  2329                           	
  2330  001514                     l93:
  2331  001514  0012               	return
  2332                           	opt stack 0
  2333                           GLOBAL	__end_of_mInitMotors
  2334  001516                     	__end_of_mInitMotors:
  2335                           	signat	_mInitMotors,88
  2336                           	global	_moveRobotSpeed
  2337                           
  2338 ;; *************** function _moveRobotSpeed *****************
  2339 ;; Defined at:
  2340 ;;		line 57 in file "../cdrbot.c"
  2341 ;; Parameters:    Size  Location     Type
  2342 ;;  direction       2   38[COMRAM] unsigned int 
  2343 ;;  speed           2   40[COMRAM] unsigned int 
  2344 ;; Auto vars:     Size  Location     Type
  2345 ;;  speedRightSe    2   46[COMRAM] int 
  2346 ;;  speedLeftSer    2   44[COMRAM] int 
  2347 ;; Return value:  Size  Location     Type
  2348 ;;		None               void
  2349 ;; Registers used:
  2350 ;;		wreg, fsr0l, fsr0h, fsr1l, fsr1h, fsr2l, fsr2h, status,2, status,0, pclat, tosl, structret, tblptrl, tblptrh, tblptr
       u, prodl, prodh, bsr, cstack
  2351 ;; Tracked objects:
  2352 ;;		On entry : 0/0
  2353 ;;		On exit  : 0/0
  2354 ;;		Unchanged: 0/0
  2355 ;; Data sizes:     COMRAM   BANK0   BANK1   BANK2   BANK3   BANK4   BANK5   BANK6   BANK7
  2356 ;;      Params:         4       0       0       0       0       0       0       0       0
  2357 ;;      Locals:         4       0       0       0       0       0       0       0       0
  2358 ;;      Temps:          2       0       0       0       0       0       0       0       0
  2359 ;;      Totals:        10       0       0       0       0       0       0       0       0
  2360 ;;Total ram usage:       10 bytes
  2361 ;; Hardware stack levels used:    1
  2362 ;; Hardware stack levels required when called:    5
  2363 ;; This function calls:
  2364 ;;		_setServoSpeed
  2365 ;; This function is called by:
  2366 ;;		_moveRobot
  2367 ;; This function uses a non-reentrant model
  2368 ;;
  2369                           psect	text6,class=CODE,space=0,reloc=2
  2370                           global __ptext6
  2371  00119E                     __ptext6:
  2372                           psect	text6
  2373                           	file	"../cdrbot.c"
  2374                           	line	57
  2375                           	global	__size_of_moveRobotSpeed
  2376  0000                     	__size_of_moveRobotSpeed	equ	__end_of_moveRobotSpeed-_moveRobotSpeed
  2377                           	
  2378  00119E                     _moveRobotSpeed:
  2379                           	opt	stack 24
  2380                           	line	58
  2381                           	
  2382  00119E                     l802:
  2383                           ;cdrbot.c: 58: int speedLeftServo = 0;
  2384  00119E  0E00               	movlw	high(0)
  2385  0011A0  6E2E               	movwf	((c:moveRobotSpeed@speedLeftServo+1)),c
  2386  0011A2  0E00               	movlw	low(0)
  2387  0011A4  6E2D               	movwf	((c:moveRobotSpeed@speedLeftServo)),c
  2388                           	line	59
  2389                           ;cdrbot.c: 59: int speedRightServo = 0;
  2390  0011A6  0E00               	movlw	high(0)
  2391  0011A8  6E30               	movwf	((c:moveRobotSpeed@speedRightServo+1)),c
  2392  0011AA  0E00               	movlw	low(0)
  2393  0011AC  6E2F               	movwf	((c:moveRobotSpeed@speedRightServo)),c
  2394                           	line	61
  2395                           ;cdrbot.c: 61: switch ( direction )
  2396  0011AE  D04E               	goto	l808
  2397                           	line	63
  2398                           ;cdrbot.c: 62: {
  2399                           ;cdrbot.c: 63: case 'f':
  2400                           	
  2401  0011B0                     l59:
  2402                           	line	64
  2403                           ;cdrbot.c: 64: speedLeftServo = speed;
  2404  0011B0  C029  F02D         	movff	(c:moveRobotSpeed@speed),(c:moveRobotSpeed@speedLeftServo)
  2405  0011B4  C02A  F02E         	movff	(c:moveRobotSpeed@speed+1),(c:moveRobotSpeed@speedLeftServo+1)
  2406                           	line	65
  2407                           ;cdrbot.c: 65: speedRightServo = -speed;
  2408  0011B8  C029  F02B         	movff	(c:moveRobotSpeed@speed),??_moveRobotSpeed+0+0
  2409  0011BC  C02A  F02C         	movff	(c:moveRobotSpeed@speed+1),??_moveRobotSpeed+0+0+1
  2410  0011C0  1E2B               	comf	(??_moveRobotSpeed+0+0),c
  2411  0011C2  1E2C               	comf	(??_moveRobotSpeed+0+1),c
  2412  0011C4  4A2B               	infsnz	(??_moveRobotSpeed+0+0),c
  2413  0011C6  2A2C               	incf	(??_moveRobotSpeed+0+1),c
  2414  0011C8  C02B  F02F         	movff	??_moveRobotSpeed+0+0,(c:moveRobotSpeed@speedRightServo)
  2415  0011CC  C02C  F030         	movff	??_moveRobotSpeed+0+1,(c:moveRobotSpeed@speedRightServo+1)
  2416                           	line	66
  2417                           ;cdrbot.c: 66: break;
  2418  0011D0  D057               	goto	l810
  2419                           	line	67
  2420                           ;cdrbot.c: 67: case 'b':
  2421                           	
  2422  0011D2                     l61:
  2423                           	line	68
  2424                           ;cdrbot.c: 68: speedLeftServo = -speed;
  2425  0011D2  C029  F02B         	movff	(c:moveRobotSpeed@speed),??_moveRobotSpeed+0+0
  2426  0011D6  C02A  F02C         	movff	(c:moveRobotSpeed@speed+1),??_moveRobotSpeed+0+0+1
  2427  0011DA  1E2B               	comf	(??_moveRobotSpeed+0+0),c
  2428  0011DC  1E2C               	comf	(??_moveRobotSpeed+0+1),c
  2429  0011DE  4A2B               	infsnz	(??_moveRobotSpeed+0+0),c
  2430  0011E0  2A2C               	incf	(??_moveRobotSpeed+0+1),c
  2431  0011E2  C02B  F02D         	movff	??_moveRobotSpeed+0+0,(c:moveRobotSpeed@speedLeftServo)
  2432  0011E6  C02C  F02E         	movff	??_moveRobotSpeed+0+1,(c:moveRobotSpeed@speedLeftServo+1)
  2433                           	line	69
  2434                           ;cdrbot.c: 69: speedRightServo = speed;
  2435  0011EA  C029  F02F         	movff	(c:moveRobotSpeed@speed),(c:moveRobotSpeed@speedRightServo)
  2436  0011EE  C02A  F030         	movff	(c:moveRobotSpeed@speed+1),(c:moveRobotSpeed@speedRightServo+1)
  2437                           	line	70
  2438                           ;cdrbot.c: 70: break;
  2439  0011F2  D046               	goto	l810
  2440                           	line	71
  2441                           ;cdrbot.c: 71: case 'l':
  2442                           	
  2443  0011F4                     l62:
  2444                           	line	72
  2445                           ;cdrbot.c: 72: speedLeftServo = -speed;
  2446  0011F4  C029  F02B         	movff	(c:moveRobotSpeed@speed),??_moveRobotSpeed+0+0
  2447  0011F8  C02A  F02C         	movff	(c:moveRobotSpeed@speed+1),??_moveRobotSpeed+0+0+1
  2448  0011FC  1E2B               	comf	(??_moveRobotSpeed+0+0),c
  2449  0011FE  1E2C               	comf	(??_moveRobotSpeed+0+1),c
  2450  001200  4A2B               	infsnz	(??_moveRobotSpeed+0+0),c
  2451  001202  2A2C               	incf	(??_moveRobotSpeed+0+1),c
  2452  001204  C02B  F02D         	movff	??_moveRobotSpeed+0+0,(c:moveRobotSpeed@speedLeftServo)
  2453  001208  C02C  F02E         	movff	??_moveRobotSpeed+0+1,(c:moveRobotSpeed@speedLeftServo+1)
  2454                           	line	73
  2455                           ;cdrbot.c: 73: speedRightServo = -speed;
  2456  00120C  C029  F02B         	movff	(c:moveRobotSpeed@speed),??_moveRobotSpeed+0+0
  2457  001210  C02A  F02C         	movff	(c:moveRobotSpeed@speed+1),??_moveRobotSpeed+0+0+1
  2458  001214  1E2B               	comf	(??_moveRobotSpeed+0+0),c
  2459  001216  1E2C               	comf	(??_moveRobotSpeed+0+1),c
  2460  001218  4A2B               	infsnz	(??_moveRobotSpeed+0+0),c
  2461  00121A  2A2C               	incf	(??_moveRobotSpeed+0+1),c
  2462  00121C  C02B  F02F         	movff	??_moveRobotSpeed+0+0,(c:moveRobotSpeed@speedRightServo)
  2463  001220  C02C  F030         	movff	??_moveRobotSpeed+0+1,(c:moveRobotSpeed@speedRightServo+1)
  2464                           	line	74
  2465                           ;cdrbot.c: 74: break;
  2466  001224  D02D               	goto	l810
  2467                           	line	75
  2468                           ;cdrbot.c: 75: case 'r':
  2469                           	
  2470  001226                     l63:
  2471                           	line	76
  2472                           ;cdrbot.c: 76: speedLeftServo = speed;
  2473  001226  C029  F02D         	movff	(c:moveRobotSpeed@speed),(c:moveRobotSpeed@speedLeftServo)
  2474  00122A  C02A  F02E         	movff	(c:moveRobotSpeed@speed+1),(c:moveRobotSpeed@speedLeftServo+1)
  2475                           	line	77
  2476                           ;cdrbot.c: 77: speedRightServo = speed;
  2477  00122E  C029  F02F         	movff	(c:moveRobotSpeed@speed),(c:moveRobotSpeed@speedRightServo)
  2478  001232  C02A  F030         	movff	(c:moveRobotSpeed@speed+1),(c:moveRobotSpeed@speedRightServo+1)
  2479                           	line	78
  2480                           ;cdrbot.c: 78: break;
  2481  001236  D024               	goto	l810
  2482                           	line	79
  2483                           ;cdrbot.c: 79: case 's':
  2484                           	
  2485  001238                     l64:
  2486                           	line	80
  2487                           	
  2488  001238                     l804:
  2489                           ;cdrbot.c: 80: speedLeftServo = 0;
  2490  001238  0E00               	movlw	high(0)
  2491  00123A  6E2E               	movwf	((c:moveRobotSpeed@speedLeftServo+1)),c
  2492  00123C  0E00               	movlw	low(0)
  2493  00123E  6E2D               	movwf	((c:moveRobotSpeed@speedLeftServo)),c
  2494                           	line	81
  2495                           ;cdrbot.c: 81: speedRightServo = 0;
  2496  001240  0E00               	movlw	high(0)
  2497  001242  6E30               	movwf	((c:moveRobotSpeed@speedRightServo+1)),c
  2498  001244  0E00               	movlw	low(0)
  2499  001246  6E2F               	movwf	((c:moveRobotSpeed@speedRightServo)),c
  2500                           	line	82
  2501                           ;cdrbot.c: 82: break;
  2502  001248  D01B               	goto	l810
  2503                           	line	84
  2504                           	
  2505  00124A                     l806:
  2506                           ;cdrbot.c: 84: }
  2507  00124A  D01A               	goto	l810
  2508                           	line	61
  2509                           	
  2510  00124C                     l58:
  2511                           	
  2512  00124C                     l808:
  2513  00124C  C027  F02B         	movff	(c:moveRobotSpeed@direction),??_moveRobotSpeed+0+0
  2514  001250  C028  F02C         	movff	(c:moveRobotSpeed@direction+1),??_moveRobotSpeed+0+0+1
  2515                           	; Switch on 2 bytes has been partitioned into a top level switch of size 1, and 1 sub-s
                                 witches
  2516                           ; Switch size 1, requested type "space"
  2517                           ; Number of cases is 1, Range of values is 0 to 0
  2518                           ; switch strategies available:
  2519                           ; Name         Instructions Cycles
  2520                           ; simple_byte            4     3 (average)
  2521                           ;	Chosen strategy is simple_byte
  2522                           
  2523  001254  502C               	movf ??_moveRobotSpeed+0+1,c,w
  2524  001256  0A00               	xorlw	0^0	; case 0
  2525  001258  B4D8               	skipnz
  2526  00125A  D001               	goto	l898
  2527  00125C  D011               	goto	l810
  2528                           	
  2529  00125E                     l898:
  2530                           ; Switch size 1, requested type "space"
  2531                           ; Number of cases is 5, Range of values is 98 to 115
  2532                           ; switch strategies available:
  2533                           ; Name         Instructions Cycles
  2534                           ; simple_byte           16     9 (average)
  2535                           ;	Chosen strategy is simple_byte
  2536                           
  2537  00125E  502B               	movf ??_moveRobotSpeed+0+0,c,w
  2538  001260  0A62               	xorlw	98^0	; case 98
  2539  001262  B4D8               	skipnz
  2540  001264  D7B6               	goto	l61
  2541  001266  0A04               	xorlw	102^98	; case 102
  2542  001268  B4D8               	skipnz
  2543  00126A  D7A2               	goto	l59
  2544  00126C  0A0A               	xorlw	108^102	; case 108
  2545  00126E  B4D8               	skipnz
  2546  001270  D7C1               	goto	l62
  2547  001272  0A1E               	xorlw	114^108	; case 114
  2548  001274  B4D8               	skipnz
  2549  001276  D7D7               	goto	l63
  2550  001278  0A01               	xorlw	115^114	; case 115
  2551  00127A  B4D8               	skipnz
  2552  00127C  D7DD               	goto	l804
  2553  00127E  D000               	goto	l810
  2554                           
  2555                           	line	84
  2556                           	
  2557  001280                     l60:
  2558                           	line	86
  2559                           	
  2560  001280                     l810:
  2561                           ;cdrbot.c: 86: setServoSpeed(0, speedLeftServo);
  2562  001280  0E00               	movlw	high(0)
  2563  001282  6E1C               	movwf	((c:?_setServoSpeed+1)),c
  2564  001284  0E00               	movlw	low(0)
  2565  001286  6E1B               	movwf	((c:?_setServoSpeed)),c
  2566  001288  C02D  F01D         	movff	(c:moveRobotSpeed@speedLeftServo),0+((c:?_setServoSpeed)+02h)
  2567  00128C  C02E  F01E         	movff	(c:moveRobotSpeed@speedLeftServo+1),1+((c:?_setServoSpeed)+02h)
  2568  001290  EC55  F009         	call	_setServoSpeed	;wreg free
  2569                           	line	87
  2570                           ;cdrbot.c: 87: setServoSpeed(1, speedRightServo);
  2571  001294  0E00               	movlw	high(01h)
  2572  001296  6E1C               	movwf	((c:?_setServoSpeed+1)),c
  2573  001298  0E01               	movlw	low(01h)
  2574  00129A  6E1B               	movwf	((c:?_setServoSpeed)),c
  2575  00129C  C02F  F01D         	movff	(c:moveRobotSpeed@speedRightServo),0+((c:?_setServoSpeed)+02h)
  2576  0012A0  C030  F01E         	movff	(c:moveRobotSpeed@speedRightServo+1),1+((c:?_setServoSpeed)+02h)
  2577  0012A4  EC55  F009         	call	_setServoSpeed	;wreg free
  2578                           	line	88
  2579                           	
  2580  0012A8                     l65:
  2581  0012A8  0012               	return
  2582                           	opt stack 0
  2583                           GLOBAL	__end_of_moveRobotSpeed
  2584  0012AA                     	__end_of_moveRobotSpeed:
  2585                           	signat	_moveRobotSpeed,8312
  2586                           	global	_setServoSpeed
  2587                           
  2588 ;; *************** function _setServoSpeed *****************
  2589 ;; Defined at:
  2590 ;;		line 59 in file "../motors.c"
  2591 ;; Parameters:    Size  Location     Type
  2592 ;;  servoID         2   26[COMRAM] unsigned int 
  2593 ;;  speed           2   28[COMRAM] int 
  2594 ;; Auto vars:     Size  Location     Type
  2595 ;;		None
  2596 ;; Return value:  Size  Location     Type
  2597 ;;		None               void
  2598 ;; Registers used:
  2599 ;;		wreg, fsr0l, fsr0h, fsr1l, fsr1h, fsr2l, fsr2h, status,2, status,0, pclat, tosl, structret, tblptrl, tblptrh, tblptr
       u, prodl, prodh, bsr, cstack
  2600 ;; Tracked objects:
  2601 ;;		On entry : 0/0
  2602 ;;		On exit  : 0/0
  2603 ;;		Unchanged: 0/0
  2604 ;; Data sizes:     COMRAM   BANK0   BANK1   BANK2   BANK3   BANK4   BANK5   BANK6   BANK7
  2605 ;;      Params:         4       0       0       0       0       0       0       0       0
  2606 ;;      Locals:         0       0       0       0       0       0       0       0       0
  2607 ;;      Temps:          8       0       0       0       0       0       0       0       0
  2608 ;;      Totals:        12       0       0       0       0       0       0       0       0
  2609 ;;Total ram usage:       12 bytes
  2610 ;; Hardware stack levels used:    1
  2611 ;; Hardware stack levels required when called:    4
  2612 ;; This function calls:
  2613 ;;		___wmul
  2614 ;; This function is called by:
  2615 ;;		_moveRobotSpeed
  2616 ;; This function uses a non-reentrant model
  2617 ;;
  2618                           psect	text7,class=CODE,space=0,reloc=2
  2619                           global __ptext7
  2620  0012AA                     __ptext7:
  2621                           psect	text7
  2622                           	file	"../motors.c"
  2623                           	line	59
  2624                           	global	__size_of_setServoSpeed
  2625  0000                     	__size_of_setServoSpeed	equ	__end_of_setServoSpeed-_setServoSpeed
  2626                           	
  2627  0012AA                     _setServoSpeed:
  2628                           	opt	stack 24
  2629                           	line	60
  2630                           	
  2631  0012AA                     l814:
  2632                           ;motors.c: 60: if ( speed > 255 )
  2633  0012AA  501E               	movf	((c:setServoSpeed@speed+1)),c,w
  2634  0012AC  0A80               	xorlw	80h
  2635  0012AE  0F7F               	addlw	-((01h)^80h)
  2636  0012B0  0E00               	movlw	0
  2637  0012B2  B4D8               	btfsc	status,2
  2638  0012B4  5C1D               	subwf	((c:setServoSpeed@speed)),c,w
  2639  0012B6  A0D8               	btfss	status,0
  2640  0012B8  D001               	goto	u61
  2641  0012BA  D001               	goto	u60
  2642  0012BC                     u61:
  2643  0012BC  D005               	goto	l818
  2644  0012BE                     u60:
  2645                           	line	61
  2646                           	
  2647  0012BE                     l816:
  2648                           ;motors.c: 61: speed = 255;
  2649  0012BE  0E00               	movlw	high(0FFh)
  2650  0012C0  6E1E               	movwf	((c:setServoSpeed@speed+1)),c
  2651  0012C2  0EFF               	movlw	low(0FFh)
  2652  0012C4  6E1D               	movwf	((c:setServoSpeed@speed)),c
  2653  0012C6  D000               	goto	l818
  2654                           	
  2655  0012C8                     l107:
  2656                           	line	63
  2657                           	
  2658  0012C8                     l818:
  2659                           ;motors.c: 63: Servo_PWM[servoID] = zeroServo[servoID] + (speed * 38);
  2660  0012C8  90D8               	bcf	status,0
  2661  0012CA  341B               	rlcf	((c:setServoSpeed@servoID)),c,w
  2662  0012CC  6E1F               	movwf	(??_setServoSpeed+0+0)&0ffh,c
  2663  0012CE  341C               	rlcf	((c:setServoSpeed@servoID+1)),c,w
  2664  0012D0  6E20               	movwf	1+(??_setServoSpeed+0+0)&0ffh,c
  2665  0012D2  0E4D               	movlw	low((c:_zeroServo))
  2666  0012D4  241F               	addwf	(??_setServoSpeed+0+0),c,w
  2667  0012D6  6ED9               	movwf	c:fsr2l
  2668  0012D8  0E00               	movlw	high((c:_zeroServo))
  2669  0012DA  2020               	addwfc	(??_setServoSpeed+0+1),c,w
  2670  0012DC  6EDA               	movwf	1+c:fsr2l
  2671  0012DE  CFDE F021          	movff	postinc2,??_setServoSpeed+2+0
  2672  0012E2  CFDD F022          	movff	postdec2,??_setServoSpeed+2+0+1
  2673  0012E6  C01D  F015         	movff	(c:setServoSpeed@speed),(c:?___wmul)
  2674  0012EA  C01E  F016         	movff	(c:setServoSpeed@speed+1),(c:?___wmul+1)
  2675  0012EE  0E00               	movlw	high(026h)
  2676  0012F0  6E18               	movwf	(1+((c:?___wmul)+02h)),c
  2677  0012F2  0E26               	movlw	low(026h)
  2678  0012F4  6E17               	movwf	(0+((c:?___wmul)+02h)),c
  2679  0012F6  EC08  F00A         	call	___wmul	;wreg free
  2680  0012FA  5021               	movf	(??_setServoSpeed+2+0),c,w
  2681  0012FC  2415               	addwf	(0+?___wmul),c,w
  2682  0012FE  6E23               	movwf	(??_setServoSpeed+4+0)&0ffh,c
  2683  001300  5022               	movf	(??_setServoSpeed+2+1),c,w
  2684  001302  2016               	addwfc	(1+?___wmul),c,w
  2685  001304  6E24               	movwf	1+(??_setServoSpeed+4+0)&0ffh,c
  2686  001306  90D8               	bcf	status,0
  2687  001308  341B               	rlcf	((c:setServoSpeed@servoID)),c,w
  2688  00130A  6E25               	movwf	(??_setServoSpeed+6+0)&0ffh,c
  2689  00130C  341C               	rlcf	((c:setServoSpeed@servoID+1)),c,w
  2690  00130E  6E26               	movwf	1+(??_setServoSpeed+6+0)&0ffh,c
  2691  001310  0E49               	movlw	low((c:_Servo_PWM))	;volatile
  2692  001312  2425               	addwf	(??_setServoSpeed+6+0),c,w
  2693  001314  6ED9               	movwf	c:fsr2l
  2694  001316  0E00               	movlw	high((c:_Servo_PWM))	;volatile
  2695  001318  2026               	addwfc	(??_setServoSpeed+6+1),c,w
  2696  00131A  6EDA               	movwf	1+c:fsr2l
  2697  00131C  C023  FFDE         	movff	??_setServoSpeed+4+0,postinc2
  2698  001320  C024  FFDD         	movff	??_setServoSpeed+4+1,postdec2
  2699                           
  2700                           	line	65
  2701                           	
  2702  001324                     l820:
  2703                           ;motors.c: 65: if ( !speed )
  2704  001324  501E               	movf	((c:setServoSpeed@speed+1)),c,w
  2705  001326  101D               	iorwf ((c:setServoSpeed@speed)),c,w
  2706                           
  2707  001328  A4D8               	btfss	status,2
  2708  00132A  D001               	goto	u71
  2709  00132C  D001               	goto	u70
  2710  00132E                     u71:
  2711  00132E  D010               	goto	l824
  2712  001330                     u70:
  2713                           	line	66
  2714                           	
  2715  001330                     l822:
  2716                           ;motors.c: 66: enableServo[servoID] = 0;
  2717  001330  90D8               	bcf	status,0
  2718  001332  341B               	rlcf	((c:setServoSpeed@servoID)),c,w
  2719  001334  6E1F               	movwf	(??_setServoSpeed+0+0)&0ffh,c
  2720  001336  341C               	rlcf	((c:setServoSpeed@servoID+1)),c,w
  2721  001338  6E20               	movwf	1+(??_setServoSpeed+0+0)&0ffh,c
  2722  00133A  0E51               	movlw	low((c:_enableServo))
  2723  00133C  241F               	addwf	(??_setServoSpeed+0+0),c,w
  2724  00133E  6ED9               	movwf	c:fsr2l
  2725  001340  0E00               	movlw	high((c:_enableServo))
  2726  001342  2020               	addwfc	(??_setServoSpeed+0+1),c,w
  2727  001344  6EDA               	movwf	1+c:fsr2l
  2728  001346  0E00               	movlw	low(0)
  2729  001348  6EDE               	movwf	postinc2
  2730  00134A  0E00               	movlw	high(0)
  2731  00134C  6EDD               	movwf	postdec2
  2732  00134E  D010               	goto	l110
  2733                           	line	67
  2734                           	
  2735  001350                     l108:
  2736                           	line	68
  2737                           	
  2738  001350                     l824:
  2739                           ;motors.c: 67: else
  2740                           ;motors.c: 68: enableServo[servoID] = 1;
  2741  001350  90D8               	bcf	status,0
  2742  001352  341B               	rlcf	((c:setServoSpeed@servoID)),c,w
  2743  001354  6E1F               	movwf	(??_setServoSpeed+0+0)&0ffh,c
  2744  001356  341C               	rlcf	((c:setServoSpeed@servoID+1)),c,w
  2745  001358  6E20               	movwf	1+(??_setServoSpeed+0+0)&0ffh,c
  2746  00135A  0E51               	movlw	low((c:_enableServo))
  2747  00135C  241F               	addwf	(??_setServoSpeed+0+0),c,w
  2748  00135E  6ED9               	movwf	c:fsr2l
  2749  001360  0E00               	movlw	high((c:_enableServo))
  2750  001362  2020               	addwfc	(??_setServoSpeed+0+1),c,w
  2751  001364  6EDA               	movwf	1+c:fsr2l
  2752  001366  0E01               	movlw	low(01h)
  2753  001368  6EDE               	movwf	postinc2
  2754  00136A  0E00               	movlw	high(01h)
  2755  00136C  6EDD               	movwf	postdec2
  2756  00136E  D000               	goto	l110
  2757                           	
  2758  001370                     l109:
  2759                           	line	69
  2760                           	
  2761  001370                     l110:
  2762  001370  0012               	return
  2763                           	opt stack 0
  2764                           GLOBAL	__end_of_setServoSpeed
  2765  001372                     	__end_of_setServoSpeed:
  2766                           	signat	_setServoSpeed,8312
  2767                           	global	_OpenTimer0
  2768                           
  2769 ;; *************** function _OpenTimer0 *****************
  2770 ;; Defined at:
  2771 ;;		line 19 in file "plib/Timers/t0open.c"
  2772 ;; Parameters:    Size  Location     Type
  2773 ;;  config          1   20[COMRAM] unsigned char 
  2774 ;; Auto vars:     Size  Location     Type
  2775 ;;		None
  2776 ;; Return value:  Size  Location     Type
  2777 ;;		None               void
  2778 ;; Registers used:
  2779 ;;		wreg, status,2, status,0
  2780 ;; Tracked objects:
  2781 ;;		On entry : 0/0
  2782 ;;		On exit  : 0/0
  2783 ;;		Unchanged: 0/0
  2784 ;; Data sizes:     COMRAM   BANK0   BANK1   BANK2   BANK3   BANK4   BANK5   BANK6   BANK7
  2785 ;;      Params:         1       0       0       0       0       0       0       0       0
  2786 ;;      Locals:         0       0       0       0       0       0       0       0       0
  2787 ;;      Temps:          0       0       0       0       0       0       0       0       0
  2788 ;;      Totals:         1       0       0       0       0       0       0       0       0
  2789 ;;Total ram usage:        1 bytes
  2790 ;; Hardware stack levels used:    1
  2791 ;; Hardware stack levels required when called:    3
  2792 ;; This function calls:
  2793 ;;		Nothing
  2794 ;; This function is called by:
  2795 ;;		_mInitMotors
  2796 ;; This function uses a non-reentrant model
  2797 ;;
  2798                           psect	text8,class=CODE,space=0,reloc=2
  2799                           global __ptext8
  2800  001480                     __ptext8:
  2801                           psect	text8
  2802                           	file	"plib/Timers/t0open.c"
  2803                           	line	19
  2804                           	global	__size_of_OpenTimer0
  2805  0000                     	__size_of_OpenTimer0	equ	__end_of_OpenTimer0-_OpenTimer0
  2806                           	
  2807  001480                     _OpenTimer0:
  2808                           	opt	stack 25
  2809                           	line	20
  2810                           	
  2811  001480                     l826:
  2812  001480  5015               	movf	((c:OpenTimer0@config)),c,w
  2813  001482  0B7F               	andlw	low(07Fh)
  2814  001484  6ED5               	movwf	((c:4053)),c	;volatile
  2815                           	line	21
  2816                           	
  2817  001486                     l828:
  2818  001486  0E00               	movlw	low(0)
  2819  001488  6ED7               	movwf	((c:4055)),c	;volatile
  2820                           	line	22
  2821                           	
  2822  00148A                     l830:
  2823  00148A  0E00               	movlw	low(0)
  2824  00148C  6ED6               	movwf	((c:4054)),c	;volatile
  2825                           	line	23
  2826                           	
  2827  00148E                     l832:
  2828  00148E  94F2               	bcf	((c:4082)),c,2	;volatile
  2829                           	line	25
  2830                           	
  2831  001490                     l834:
  2832                           	
  2833  001490  AE15               	btfss	((c:OpenTimer0@config)),c,(7)&7
  2834  001492  D001               	goto	u81
  2835  001494  D001               	goto	u80
  2836  001496                     u81:
  2837  001496  D002               	goto	l123
  2838  001498                     u80:
  2839                           	line	26
  2840                           	
  2841  001498                     l836:
  2842  001498  8AF2               	bsf	((c:4082)),c,5	;volatile
  2843  00149A  D001               	goto	l124
  2844                           	line	27
  2845                           	
  2846  00149C                     l123:
  2847                           	line	28
  2848  00149C  9AF2               	bcf	((c:4082)),c,5	;volatile
  2849                           	
  2850  00149E                     l124:
  2851                           	line	30
  2852  00149E  8ED5               	bsf	((c:4053)),c,7	;volatile
  2853                           	line	31
  2854                           	
  2855  0014A0                     l125:
  2856  0014A0  0012               	return
  2857                           	opt stack 0
  2858                           GLOBAL	__end_of_OpenTimer0
  2859  0014A2                     	__end_of_OpenTimer0:
  2860                           	signat	_OpenTimer0,4216
  2861                           	global	___wmul
  2862                           
  2863 ;; *************** function ___wmul *****************
  2864 ;; Defined at:
  2865 ;;		line 3 in file "/opt/microchip/xc8/v1.11/sources/wmul.c"
  2866 ;; Parameters:    Size  Location     Type
  2867 ;;  multiplier      2   20[COMRAM] unsigned int 
  2868 ;;  multiplicand    2   22[COMRAM] unsigned int 
  2869 ;; Auto vars:     Size  Location     Type
  2870 ;;  product         2   24[COMRAM] unsigned int 
  2871 ;; Return value:  Size  Location     Type
  2872 ;;                  2   20[COMRAM] unsigned int 
  2873 ;; Registers used:
  2874 ;;		wreg, status,2, status,0
  2875 ;; Tracked objects:
  2876 ;;		On entry : 0/0
  2877 ;;		On exit  : 0/0
  2878 ;;		Unchanged: 0/0
  2879 ;; Data sizes:     COMRAM   BANK0   BANK1   BANK2   BANK3   BANK4   BANK5   BANK6   BANK7
  2880 ;;      Params:         4       0       0       0       0       0       0       0       0
  2881 ;;      Locals:         2       0       0       0       0       0       0       0       0
  2882 ;;      Temps:          0       0       0       0       0       0       0       0       0
  2883 ;;      Totals:         6       0       0       0       0       0       0       0       0
  2884 ;;Total ram usage:        6 bytes
  2885 ;; Hardware stack levels used:    1
  2886 ;; Hardware stack levels required when called:    3
  2887 ;; This function calls:
  2888 ;;		Nothing
  2889 ;; This function is called by:
  2890 ;;		_setServoSpeed
  2891 ;; This function uses a non-reentrant model
  2892 ;;
  2893                           psect	text9,class=CODE,space=0,reloc=2
  2894                           global __ptext9
  2895  001410                     __ptext9:
  2896                           psect	text9
  2897                           	file	"/opt/microchip/xc8/v1.11/sources/wmul.c"
  2898                           	line	3
  2899                           	global	__size_of___wmul
  2900  0000                     	__size_of___wmul	equ	__end_of___wmul-___wmul
  2901                           	
  2902  001410                     ___wmul:
  2903                           	opt	stack 24
  2904                           	line	4
  2905                           	
  2906  001410                     l840:
  2907  001410  0E00               	movlw	high(0)
  2908  001412  6E1A               	movwf	((c:___wmul@product+1)),c
  2909  001414  0E00               	movlw	low(0)
  2910  001416  6E19               	movwf	((c:___wmul@product)),c
  2911  001418  D000               	goto	l842
  2912                           	line	6
  2913                           	
  2914  00141A                     l629:
  2915                           	line	7
  2916                           	
  2917  00141A                     l842:
  2918                           	
  2919  00141A  A015               	btfss	((c:___wmul@multiplier)),c,(0)&7
  2920  00141C  D001               	goto	u91
  2921  00141E  D001               	goto	u90
  2922  001420                     u91:
  2923  001420  D005               	goto	l846
  2924  001422                     u90:
  2925                           	line	8
  2926                           	
  2927  001422                     l844:
  2928  001422  5017               	movf	((c:___wmul@multiplicand)),c,w
  2929  001424  2619               	addwf	((c:___wmul@product)),c
  2930  001426  5018               	movf	((c:___wmul@multiplicand+1)),c,w
  2931  001428  221A               	addwfc	((c:___wmul@product+1)),c
  2932                           
  2933  00142A  D000               	goto	l846
  2934                           	
  2935  00142C                     l630:
  2936                           	line	9
  2937                           	
  2938  00142C                     l846:
  2939  00142C  90D8               	bcf	status,0
  2940  00142E  3617               	rlcf	((c:___wmul@multiplicand)),c
  2941  001430  3618               	rlcf	((c:___wmul@multiplicand+1)),c
  2942                           	line	10
  2943                           	
  2944  001432                     l848:
  2945  001432  90D8               	bcf	status,0
  2946  001434  3216               	rrcf	((c:___wmul@multiplier+1)),c
  2947  001436  3215               	rrcf	((c:___wmul@multiplier)),c
  2948                           	line	11
  2949  001438  5016               	movf	((c:___wmul@multiplier+1)),c,w
  2950  00143A  1015               	iorwf ((c:___wmul@multiplier)),c,w
  2951                           
  2952  00143C  A4D8               	btfss	status,2
  2953  00143E  D001               	goto	u101
  2954  001440  D001               	goto	u100
  2955  001442                     u101:
  2956  001442  D7EB               	goto	l842
  2957  001444                     u100:
  2958                           	
  2959  001444                     l631:
  2960                           	line	12
  2961  001444  C019  F015         	movff	(c:___wmul@product),(c:?___wmul)
  2962  001448  C01A  F016         	movff	(c:___wmul@product+1),(c:?___wmul+1)
  2963                           	line	13
  2964                           	
  2965  00144C                     l632:
  2966  00144C  0012               	return
  2967                           	opt stack 0
  2968                           GLOBAL	__end_of___wmul
  2969  00144E                     	__end_of___wmul:
  2970                           	signat	___wmul,8314
  2971                           	global	_ISR
  2972                           
  2973 ;; *************** function _ISR *****************
  2974 ;; Defined at:
  2975 ;;		line 39 in file "../main.c"
  2976 ;; Parameters:    Size  Location     Type
  2977 ;;		None
  2978 ;; Auto vars:     Size  Location     Type
  2979 ;;		None
  2980 ;; Return value:  Size  Location     Type
  2981 ;;		None               void
  2982 ;; Registers used:
  2983 ;;		wreg, fsr2l, fsr2h, status,2, status,0, prodl, prodh, cstack
  2984 ;; Tracked objects:
  2985 ;;		On entry : 0/0
  2986 ;;		On exit  : 0/0
  2987 ;;		Unchanged: 0/0
  2988 ;; Data sizes:     COMRAM   BANK0   BANK1   BANK2   BANK3   BANK4   BANK5   BANK6   BANK7
  2989 ;;      Params:         0       0       0       0       0       0       0       0       0
  2990 ;;      Locals:         0       0       0       0       0       0       0       0       0
  2991 ;;      Temps:         14       0       0       0       0       0       0       0       0
  2992 ;;      Totals:        14       0       0       0       0       0       0       0       0
  2993 ;;Total ram usage:       14 bytes
  2994 ;; Hardware stack levels used:    1
  2995 ;; Hardware stack levels required when called:    2
  2996 ;; This function calls:
  2997 ;;		_servoInterrupt
  2998 ;; This function is called by:
  2999 ;;		Interrupt level 2
  3000 ;; This function uses a non-reentrant model
  3001 ;;
  3002                           psect	intcode,class=CODE,space=0,reloc=2
  3003                           global __pintcode
  3004  001008                     __pintcode:
  3005                           psect	intcode
  3006                           	file	"../main.c"
  3007                           	line	39
  3008                           	global	__size_of_ISR
  3009  0000                     	__size_of_ISR	equ	__end_of_ISR-_ISR
  3010                           	
  3011  001008                     _ISR:
  3012                           	opt	stack 24
  3013  001008  CFFA F007          	movff	pclat+0,??_ISR+0
  3014  00100C  CFFB F008          	movff	pclat+1,??_ISR+1
  3015  001010  CFE9 F009          	movff	fsr0l+0,??_ISR+2
  3016  001014  CFEA F00A          	movff	fsr0h+0,??_ISR+3
  3017  001018  CFE1 F00B          	movff	fsr1l+0,??_ISR+4
  3018  00101C  CFE2 F00C          	movff	fsr1h+0,??_ISR+5
  3019  001020  CFD9 F00D          	movff	fsr2l+0,??_ISR+6
  3020  001024  CFDA F00E          	movff	fsr2h+0,??_ISR+7
  3021  001028  CFF3 F00F          	movff	prodl+0,??_ISR+8
  3022  00102C  CFF4 F010          	movff	prodh+0,??_ISR+9
  3023  001030  CFF6 F011          	movff	tblptrl+0,??_ISR+10
  3024  001034  CFF7 F012          	movff	tblptrh+0,??_ISR+11
  3025  001038  CFF8 F013          	movff	tblptru+0,??_ISR+12
  3026  00103C  CFF5 F014          	movff	tablat+0,??_ISR+13
  3027                           	line	40
  3028                           	
  3029  001040                     i2l894:
  3030                           ;main.c: 40: servoInterrupt();
  3031  001040  EC41  F008         	call	_servoInterrupt	;wreg free
  3032                           	line	41
  3033                           	
  3034  001044                     i2l24:
  3035  001044  C014  FFF5         	movff	??_ISR+13,tablat+0
  3036  001048  C013  FFF8         	movff	??_ISR+12,tblptru+0
  3037  00104C  C012  FFF7         	movff	??_ISR+11,tblptrh+0
  3038  001050  C011  FFF6         	movff	??_ISR+10,tblptrl+0
  3039  001054  C010  FFF4         	movff	??_ISR+9,prodh+0
  3040  001058  C00F  FFF3         	movff	??_ISR+8,prodl+0
  3041  00105C  C00E  FFDA         	movff	??_ISR+7,fsr2h+0
  3042  001060  C00D  FFD9         	movff	??_ISR+6,fsr2l+0
  3043  001064  C00C  FFE2         	movff	??_ISR+5,fsr1h+0
  3044  001068  C00B  FFE1         	movff	??_ISR+4,fsr1l+0
  3045  00106C  C00A  FFEA         	movff	??_ISR+3,fsr0h+0
  3046  001070  C009  FFE9         	movff	??_ISR+2,fsr0l+0
  3047  001074  C008  FFFB         	movff	??_ISR+1,pclat+1
  3048  001078  C007  FFFA         	movff	??_ISR+0,pclat+0
  3049  00107C  0011               	retfie f
  3050                           	opt stack 0
  3051                           GLOBAL	__end_of_ISR
  3052  00107E                     	__end_of_ISR:
  3053                           	signat	_ISR,88
  3054                           	global	_servoInterrupt
  3055                           
  3056 ;; *************** function _servoInterrupt *****************
  3057 ;; Defined at:
  3058 ;;		line 35 in file "../motors.c"
  3059 ;; Parameters:    Size  Location     Type
  3060 ;;		None
  3061 ;; Auto vars:     Size  Location     Type
  3062 ;;		None
  3063 ;; Return value:  Size  Location     Type
  3064 ;;		None               void
  3065 ;; Registers used:
  3066 ;;		wreg, fsr2l, fsr2h, status,2, status,0, prodl, prodh, cstack
  3067 ;; Tracked objects:
  3068 ;;		On entry : 0/0
  3069 ;;		On exit  : 0/0
  3070 ;;		Unchanged: 0/0
  3071 ;; Data sizes:     COMRAM   BANK0   BANK1   BANK2   BANK3   BANK4   BANK5   BANK6   BANK7
  3072 ;;      Params:         0       0       0       0       0       0       0       0       0
  3073 ;;      Locals:         0       0       0       0       0       0       0       0       0
  3074 ;;      Temps:          2       0       0       0       0       0       0       0       0
  3075 ;;      Totals:         2       0       0       0       0       0       0       0       0
  3076 ;;Total ram usage:        2 bytes
  3077 ;; Hardware stack levels used:    1
  3078 ;; Hardware stack levels required when called:    1
  3079 ;; This function calls:
  3080 ;;		_WriteTimer0
  3081 ;; This function is called by:
  3082 ;;		_ISR
  3083 ;; This function uses a non-reentrant model
  3084 ;;
  3085                           psect	text11,class=CODE,space=0,reloc=2
  3086                           global __ptext11
  3087  001082                     __ptext11:
  3088                           psect	text11
  3089                           	file	"../motors.c"
  3090                           	line	35
  3091                           	global	__size_of_servoInterrupt
  3092  0000                     	__size_of_servoInterrupt	equ	__end_of_servoInterrupt-_servoInterrupt
  3093                           	
  3094  001082                     _servoInterrupt:
  3095                           	opt	stack 24
  3096                           	line	36
  3097                           	
  3098  001082                     i2l850:
  3099                           ;motors.c: 36: if ( INTCONbits.TMR0IF && INTCONbits.TMR0IE )
  3100                           	
  3101  001082  A4F2               	btfss	((c:4082)),c,2	;volatile
  3102  001084  D001               	goto	i2u11_41
  3103  001086  D001               	goto	i2u11_40
  3104  001088                     i2u11_41:
  3105  001088  D089               	goto	i2l104
  3106  00108A                     i2u11_40:
  3107                           	
  3108  00108A                     i2l852:
  3109                           	
  3110  00108A  AAF2               	btfss	((c:4082)),c,5	;volatile
  3111  00108C  D001               	goto	i2u12_41
  3112  00108E  D001               	goto	i2u12_40
  3113  001090                     i2u12_41:
  3114  001090  D085               	goto	i2l104
  3115  001092                     i2u12_40:
  3116                           	line	38
  3117                           	
  3118  001092                     i2l854:
  3119                           ;motors.c: 37: {
  3120                           ;motors.c: 38: if ( !Servo.Phase )
  3121                           	
  3122  001092  B457               	btfsc	((c:_Servo)),c,2	;volatile
  3123  001094  D001               	goto	i2u13_41
  3124  001096  D001               	goto	i2u13_40
  3125  001098                     i2u13_41:
  3126  001098  D036               	goto	i2l97
  3127  00109A                     i2u13_40:
  3128                           	line	40
  3129                           	
  3130  00109A                     i2l856:
  3131                           ;motors.c: 39: {
  3132                           ;motors.c: 40: if ( Servo_Idx == 0 && enableServo[0] ) LATBbits.LATB0 = 1;
  3133  00109A  6658               	tstfsz	((c:_Servo_Idx)),c	;volatile
  3134  00109C  D001               	goto	i2u14_41
  3135  00109E  D001               	goto	i2u14_40
  3136  0010A0                     i2u14_41:
  3137  0010A0  D008               	goto	i2l862
  3138  0010A2                     i2u14_40:
  3139                           	
  3140  0010A2                     i2l858:
  3141  0010A2  5052               	movf	((c:_enableServo+1)),c,w
  3142  0010A4  1051               	iorwf ((c:_enableServo)),c,w
  3143                           
  3144  0010A6  B4D8               	btfsc	status,2
  3145  0010A8  D001               	goto	i2u15_41
  3146  0010AA  D001               	goto	i2u15_40
  3147  0010AC                     i2u15_41:
  3148  0010AC  D002               	goto	i2l862
  3149  0010AE                     i2u15_40:
  3150                           	
  3151  0010AE                     i2l860:
  3152  0010AE  808A               	bsf	((c:3978)),c,0	;volatile
  3153  0010B0  D000               	goto	i2l862
  3154                           	
  3155  0010B2                     i2l98:
  3156                           	line	41
  3157                           	
  3158  0010B2                     i2l862:
  3159                           ;motors.c: 41: if ( Servo_Idx == 1 && enableServo[1] ) LATBbits.LATB1 = 1;
  3160  0010B2  0458               	decf	((c:_Servo_Idx)),c,w	;volatile
  3161                           
  3162  0010B4  A4D8               	btfss	status,2
  3163  0010B6  D001               	goto	i2u16_41
  3164  0010B8  D001               	goto	i2u16_40
  3165  0010BA                     i2u16_41:
  3166  0010BA  D008               	goto	i2l868
  3167  0010BC                     i2u16_40:
  3168                           	
  3169  0010BC                     i2l864:
  3170  0010BC  5054               	movf	(1+((c:_enableServo)+02h)),c,w
  3171  0010BE  1053               	iorwf (0+((c:_enableServo)+02h)),c,w
  3172                           
  3173  0010C0  B4D8               	btfsc	status,2
  3174  0010C2  D001               	goto	i2u17_41
  3175  0010C4  D001               	goto	i2u17_40
  3176  0010C6                     i2u17_41:
  3177  0010C6  D002               	goto	i2l868
  3178  0010C8                     i2u17_40:
  3179                           	
  3180  0010C8                     i2l866:
  3181  0010C8  828A               	bsf	((c:3978)),c,1	;volatile
  3182  0010CA  D000               	goto	i2l868
  3183                           	
  3184  0010CC                     i2l99:
  3185                           	line	42
  3186                           	
  3187  0010CC                     i2l868:
  3188                           ;motors.c: 42: Ticks4NextInterrupt = 65535 - Servo_PWM[Servo_Idx];
  3189  0010CC  5058               	movf	((c:_Servo_Idx)),c,w	;volatile
  3190  0010CE  0D02               	mullw	02h
  3191  0010D0  0E49               	movlw	low((c:_Servo_PWM))	;volatile
  3192  0010D2  24F3               	addwf	(prodl),c,w
  3193  0010D4  6ED9               	movwf	c:fsr2l
  3194  0010D6  0E00               	movlw	high((c:_Servo_PWM))	;volatile
  3195  0010D8  20F4               	addwfc	prod+1,w
  3196  0010DA  6EDA               	movwf	1+c:fsr2l
  3197  0010DC  CFDE F005          	movff	postinc2,??_servoInterrupt+0+0
  3198  0010E0  CFDD F006          	movff	postdec2,??_servoInterrupt+0+0+1
  3199  0010E4  1E05               	comf	(??_servoInterrupt+0+0),c
  3200  0010E6  1E06               	comf	(??_servoInterrupt+0+1),c
  3201  0010E8  4A05               	infsnz	(??_servoInterrupt+0+0),c
  3202  0010EA  2A06               	incf	(??_servoInterrupt+0+1),c
  3203  0010EC  0EFF               	movlw	low(0FFFFh)
  3204  0010EE  2405               	addwf	(??_servoInterrupt+0+0),c,w
  3205                           	
  3206  0010F0  6E55               	movwf	((c:_Ticks4NextInterrupt)),c	;volatile
  3207  0010F2  0EFF               	movlw	high(0FFFFh)
  3208  0010F4  2006               	addwfc	(??_servoInterrupt+0+1),c,w
  3209  0010F6  6E56               	movwf	1+((c:_Ticks4NextInterrupt)),c	;volatile
  3210                           	line	43
  3211                           	
  3212  0010F8                     i2l870:
  3213                           ;motors.c: 43: WriteTimer0(Ticks4NextInterrupt);
  3214  0010F8  C055  F001         	movff	(c:_Ticks4NextInterrupt),(c:?_WriteTimer0)	;volatile
  3215  0010FC  C056  F002         	movff	(c:_Ticks4NextInterrupt+1),(c:?_WriteTimer0+1)	;volatile
  3216  001100  EC94  F00A         	call	_WriteTimer0	;wreg free
  3217                           	line	44
  3218                           ;motors.c: 44: }
  3219  001104  D03B               	goto	i2l890
  3220                           	line	45
  3221                           	
  3222  001106                     i2l97:
  3223                           	line	47
  3224                           ;motors.c: 45: else
  3225                           ;motors.c: 46: {
  3226                           ;motors.c: 47: if ( Servo_Idx == 0 && enableServo[0] ) LATBbits.LATB0 = 0;
  3227  001106  6658               	tstfsz	((c:_Servo_Idx)),c	;volatile
  3228  001108  D001               	goto	i2u18_41
  3229  00110A  D001               	goto	i2u18_40
  3230  00110C                     i2u18_41:
  3231  00110C  D008               	goto	i2l876
  3232  00110E                     i2u18_40:
  3233                           	
  3234  00110E                     i2l872:
  3235  00110E  5052               	movf	((c:_enableServo+1)),c,w
  3236  001110  1051               	iorwf ((c:_enableServo)),c,w
  3237                           
  3238  001112  B4D8               	btfsc	status,2
  3239  001114  D001               	goto	i2u19_41
  3240  001116  D001               	goto	i2u19_40
  3241  001118                     i2u19_41:
  3242  001118  D002               	goto	i2l876
  3243  00111A                     i2u19_40:
  3244                           	
  3245  00111A                     i2l874:
  3246  00111A  908A               	bcf	((c:3978)),c,0	;volatile
  3247  00111C  D000               	goto	i2l876
  3248                           	
  3249  00111E                     i2l101:
  3250                           	line	48
  3251                           	
  3252  00111E                     i2l876:
  3253                           ;motors.c: 48: if ( Servo_Idx == 1 && enableServo[1] ) LATBbits.LATB1 = 0;
  3254  00111E  0458               	decf	((c:_Servo_Idx)),c,w	;volatile
  3255                           
  3256  001120  A4D8               	btfss	status,2
  3257  001122  D001               	goto	i2u20_41
  3258  001124  D001               	goto	i2u20_40
  3259  001126                     i2u20_41:
  3260  001126  D008               	goto	i2l882
  3261  001128                     i2u20_40:
  3262                           	
  3263  001128                     i2l878:
  3264  001128  5054               	movf	(1+((c:_enableServo)+02h)),c,w
  3265  00112A  1053               	iorwf (0+((c:_enableServo)+02h)),c,w
  3266                           
  3267  00112C  B4D8               	btfsc	status,2
  3268  00112E  D001               	goto	i2u21_41
  3269  001130  D001               	goto	i2u21_40
  3270  001132                     i2u21_41:
  3271  001132  D002               	goto	i2l882
  3272  001134                     i2u21_40:
  3273                           	
  3274  001134                     i2l880:
  3275  001134  928A               	bcf	((c:3978)),c,1	;volatile
  3276  001136  D000               	goto	i2l882
  3277                           	
  3278  001138                     i2l102:
  3279                           	line	49
  3280                           	
  3281  001138                     i2l882:
  3282                           ;motors.c: 49: Ticks4NextInterrupt = 65535 - 5000UL * (48000000UL/4000000UL) + Servo_PWM
                                 [Servo_Idx];
  3283  001138  5058               	movf	((c:_Servo_Idx)),c,w	;volatile
  3284  00113A  0D02               	mullw	02h
  3285  00113C  0E49               	movlw	low((c:_Servo_PWM))	;volatile
  3286  00113E  24F3               	addwf	(prodl),c,w
  3287  001140  6ED9               	movwf	c:fsr2l
  3288  001142  0E00               	movlw	high((c:_Servo_PWM))	;volatile
  3289  001144  20F4               	addwfc	prod+1,w
  3290  001146  6EDA               	movwf	1+c:fsr2l
  3291  001148  CFDE F005          	movff	postinc2,??_servoInterrupt+0+0
  3292  00114C  CFDD F006          	movff	postdec2,??_servoInterrupt+0+0+1
  3293  001150  0E9F               	movlw	low(0159Fh)
  3294  001152  2405               	addwf	(??_servoInterrupt+0+0),c,w
  3295                           	
  3296  001154  6E55               	movwf	((c:_Ticks4NextInterrupt)),c	;volatile
  3297  001156  0E15               	movlw	high(0159Fh)
  3298  001158  2006               	addwfc	(??_servoInterrupt+0+1),c,w
  3299  00115A  6E56               	movwf	1+((c:_Ticks4NextInterrupt)),c	;volatile
  3300                           	line	50
  3301                           	
  3302  00115C                     i2l884:
  3303                           ;motors.c: 50: WriteTimer0(Ticks4NextInterrupt);
  3304  00115C  C055  F001         	movff	(c:_Ticks4NextInterrupt),(c:?_WriteTimer0)	;volatile
  3305  001160  C056  F002         	movff	(c:_Ticks4NextInterrupt+1),(c:?_WriteTimer0+1)	;volatile
  3306  001164  EC94  F00A         	call	_WriteTimer0	;wreg free
  3307                           	line	51
  3308                           	
  3309  001168                     i2l886:
  3310                           ;motors.c: 51: if ( ++Servo_Idx > 3 ) Servo_Idx = 0;
  3311  001168  2A58               	incf	((c:_Servo_Idx)),c	;volatile
  3312  00116A  0E03               	movlw	(04h-1)
  3313  00116C  6458               	cpfsgt	((c:_Servo_Idx))&0ffh	;volatile
  3314  00116E  D001               	goto	i2u22_41
  3315  001170  D001               	goto	i2u22_40
  3316  001172                     i2u22_41:
  3317  001172  D004               	goto	i2l890
  3318  001174                     i2u22_40:
  3319                           	
  3320  001174                     i2l888:
  3321  001174  0E00               	movlw	low(0)
  3322  001176  6E58               	movwf	((c:_Servo_Idx)),c	;volatile
  3323  001178  D001               	goto	i2l890
  3324                           	
  3325  00117A                     i2l103:
  3326  00117A  D000               	goto	i2l890
  3327                           	line	52
  3328                           	
  3329  00117C                     i2l100:
  3330                           	line	53
  3331                           	
  3332  00117C                     i2l890:
  3333                           ;motors.c: 52: }
  3334                           ;motors.c: 53: Servo.Phase = !Servo.Phase;
  3335                           	
  3336  00117C  A457               	btfss	((c:_Servo)),c,2	;volatile
  3337  00117E  D001               	goto	i2u23_41
  3338  001180  D002               	goto	i2u23_40
  3339  001182                     i2u23_41:
  3340  001182  0E01               	movlw	1
  3341  001184  D001               	goto	i2u23_46
  3342  001186                     i2u23_40:
  3343  001186  0E00               	movlw	0
  3344  001188                     i2u23_46:
  3345  001188  6E05               	movwf	(??_servoInterrupt+0+0)&0ffh,c
  3346  00118A  4605               	rlncf	((??_servoInterrupt+0+0)),c
  3347  00118C  4605               	rlncf	((??_servoInterrupt+0+0)),c
  3348  00118E  5057               	movf	((c:_Servo)),c,w	;volatile
  3349  001190  1805               	xorwf	((??_servoInterrupt+0+0)),c,w
  3350  001192  0BFB               	andlw	not (((1<<1)-1)<<2)
  3351  001194  1805               	xorwf	((??_servoInterrupt+0+0)),c,w
  3352  001196  6E57               	movwf	((c:_Servo)),c	;volatile
  3353                           	line	54
  3354                           	
  3355  001198                     i2l892:
  3356                           ;motors.c: 54: INTCONbits.TMR0IF = 0;
  3357  001198  94F2               	bcf	((c:4082)),c,2	;volatile
  3358  00119A  D000               	goto	i2l104
  3359                           	line	55
  3360                           	
  3361  00119C                     i2l96:
  3362                           	line	56
  3363                           	
  3364  00119C                     i2l104:
  3365  00119C  0012               	return
  3366                           	opt stack 0
  3367                           GLOBAL	__end_of_servoInterrupt
  3368  00119E                     	__end_of_servoInterrupt:
  3369                           	signat	_servoInterrupt,88
  3370                           	global	_WriteTimer0
  3371                           
  3372 ;; *************** function _WriteTimer0 *****************
  3373 ;; Defined at:
  3374 ;;		line 17 in file "plib/Timers/t0write.c"
  3375 ;; Parameters:    Size  Location     Type
  3376 ;;  timer0          2    0[COMRAM] unsigned int 
  3377 ;; Auto vars:     Size  Location     Type
  3378 ;;  timer           2    2[COMRAM] struct Timers
  3379 ;; Return value:  Size  Location     Type
  3380 ;;		None               void
  3381 ;; Registers used:
  3382 ;;		None
  3383 ;; Tracked objects:
  3384 ;;		On entry : 0/0
  3385 ;;		On exit  : 0/0
  3386 ;;		Unchanged: 0/0
  3387 ;; Data sizes:     COMRAM   BANK0   BANK1   BANK2   BANK3   BANK4   BANK5   BANK6   BANK7
  3388 ;;      Params:         2       0       0       0       0       0       0       0       0
  3389 ;;      Locals:         2       0       0       0       0       0       0       0       0
  3390 ;;      Temps:          0       0       0       0       0       0       0       0       0
  3391 ;;      Totals:         4       0       0       0       0       0       0       0       0
  3392 ;;Total ram usage:        4 bytes
  3393 ;; Hardware stack levels used:    1
  3394 ;; This function calls:
  3395 ;;		Nothing
  3396 ;; This function is called by:
  3397 ;;		_servoInterrupt
  3398 ;; This function uses a non-reentrant model
  3399 ;;
  3400                           psect	text12,class=CODE,space=0,reloc=2
  3401                           global __ptext12
  3402  001528                     __ptext12:
  3403                           psect	text12
  3404                           	file	"plib/Timers/t0write.c"
  3405                           	line	17
  3406                           	global	__size_of_WriteTimer0
  3407  0000                     	__size_of_WriteTimer0	equ	__end_of_WriteTimer0-_WriteTimer0
  3408                           	
  3409  001528                     _WriteTimer0:
  3410                           	opt	stack 24
  3411                           	line	20
  3412                           	
  3413  001528                     i2l838:
  3414  001528  C001  F003         	movff	(c:WriteTimer0@timer0),(c:WriteTimer0@timer)
  3415  00152C  C002  F004         	movff	(c:WriteTimer0@timer0+1),(c:WriteTimer0@timer+1)
  3416                           	line	22
  3417  001530  C004  FFD7         	movff	0+((c:WriteTimer0@timer)+01h),(c:4055)	;volatile
  3418                           	line	23
  3419  001534  C003  FFD6         	movff	(c:WriteTimer0@timer),(c:4054)	;volatile
  3420                           	line	24
  3421                           	
  3422  001538                     i2l132:
  3423  001538  0012               	return
  3424                           	opt stack 0
  3425                           GLOBAL	__end_of_WriteTimer0
  3426  00153A                     	__end_of_WriteTimer0:
  3427                           	signat	_WriteTimer0,4216
  3428                           	GLOBAL	__activetblptr
  3429  0000                     __activetblptr	EQU	0
  3430                           	psect	intsave_regs,class=BIGRAM,space=1
  3431                           psect	text13,class=CODE,space=0,reloc=2
  3432                           global __ptext13
  3433  000000                     __ptext13:
  3434                           	PSECT	rparam,class=COMRAM,space=1
  3435                           	GLOBAL	__Lrparam
  3436                           	FNCONF	rparam,??,?
  3437                           GLOBAL	__Lparam, __Hparam
  3438                           GLOBAL	__Lrparam, __Hrparam
  3439  0000                     __Lparam	EQU	__Lrparam
  3440  0000                     __Hparam	EQU	__Hrparam


Data Sizes:
    Strings     0
    Constant    0
    Data        18
    BSS         8
    Persistent  0
    Stack       0

Auto Spaces:
    Space          Size  Autos    Used
    COMRAM           95     62      88
    BANK0           160      0       0
    BANK1           256      0       0
    BANK2           256      0       0
    BANK3           256      0       0
    BANK4           256      0       0
    BANK5           256      0       0
    BANK6           256      0       0
    BANK7           256      0       0

Pointer List with Targets:

    ?___wmul	unsigned int  size(2) Largest target is 0


Critical Paths under _main in COMRAM

    _main->_moveRobot
    _InitRobot->_mInitMotors
    _moveRobot->_moveRobotSpeed
    _mInitMotors->_OpenTimer0
    _moveRobotSpeed->_setServoSpeed
    _setServoSpeed->___wmul

Critical Paths under _ISR in COMRAM

    _ISR->_servoInterrupt
    _servoInterrupt->_WriteTimer0

Critical Paths under _main in BANK0

    None.

Critical Paths under _ISR in BANK0

    None.

Critical Paths under _main in BANK1

    None.

Critical Paths under _ISR in BANK1

    None.

Critical Paths under _main in BANK2

    None.

Critical Paths under _ISR in BANK2

    None.

Critical Paths under _main in BANK3

    None.

Critical Paths under _ISR in BANK3

    None.

Critical Paths under _main in BANK4

    None.

Critical Paths under _ISR in BANK4

    None.

Critical Paths under _main in BANK5

    None.

Critical Paths under _ISR in BANK5

    None.

Critical Paths under _main in BANK6

    None.

Critical Paths under _ISR in BANK6

    None.

Critical Paths under _main in BANK7

    None.

Critical Paths under _ISR in BANK7

    None.

Call Graph Tables:

 ---------------------------------------------------------------------------------
 (Depth) Function   	        Calls       Base Space   Used Autos Params    Refs
 ---------------------------------------------------------------------------------
 (0) _main                                                12    12      0     435
                                             50 COMRAM    12    12      0
                          _InitRobot
                          _moveRobot
                       _Delay10KTCYx
 ---------------------------------------------------------------------------------
 (1) _InitRobot                                            0     0      0      30
                    _initClockCDRBot
                        _mInitMotors
 ---------------------------------------------------------------------------------
 (1) _moveRobot                                            2     0      2     345
                                             48 COMRAM     2     0      2
                     _moveRobotSpeed
 ---------------------------------------------------------------------------------
 (1) _Delay10KTCYx                                         2     1      1      15
                                             20 COMRAM     2     1      1
 ---------------------------------------------------------------------------------
 (2) _initClockCDRBot                                      0     0      0       0
 ---------------------------------------------------------------------------------
 (2) _mInitMotors                                          1     1      0      30
                                             21 COMRAM     1     1      0
                         _OpenTimer0
 ---------------------------------------------------------------------------------
 (2) _moveRobotSpeed                                      10     6      4     330
                                             38 COMRAM    10     6      4
                      _setServoSpeed
 ---------------------------------------------------------------------------------
 (3) _setServoSpeed                                       12     8      4     165
                                             26 COMRAM    12     8      4
                             ___wmul
 ---------------------------------------------------------------------------------
 (3) _OpenTimer0                                           1     0      1      30
                                             20 COMRAM     1     0      1
 ---------------------------------------------------------------------------------
 (4) ___wmul                                               6     2      4      60
                                             20 COMRAM     6     2      4
 ---------------------------------------------------------------------------------
 Estimated maximum stack depth 4
 ---------------------------------------------------------------------------------
 (Depth) Function   	        Calls       Base Space   Used Autos Params    Refs
 ---------------------------------------------------------------------------------
 (5) _ISR                                                 14    14      0      45
                                              6 COMRAM    14    14      0
                     _servoInterrupt
 ---------------------------------------------------------------------------------
 (6) _servoInterrupt                                       2     2      0      45
                                              4 COMRAM     2     2      0
                        _WriteTimer0
 ---------------------------------------------------------------------------------
 (7) _WriteTimer0                                          4     2      2      45
                                              0 COMRAM     4     2      2
 ---------------------------------------------------------------------------------
 Estimated maximum stack depth 7
 ---------------------------------------------------------------------------------

 Call Graph Graphs:

 _main (ROOT)
   _InitRobot
     _initClockCDRBot
     _mInitMotors
       _OpenTimer0
   _moveRobot
     _moveRobotSpeed
       _setServoSpeed
         ___wmul
   _Delay10KTCYx

 _ISR (ROOT)
   _servoInterrupt
     _WriteTimer0

 Address spaces:
Name               Size   Autos  Total    Cost      Usage
BIGRAM             7FF      0       0      21        0.0%
EEDATA             100      0       0       0        0.0%
BITBANK7           100      0       0      19        0.0%
BANK7              100      0       0      20        0.0%
BITBANK6           100      0       0      17        0.0%
BANK6              100      0       0      18        0.0%
BITBANK5           100      0       0      15        0.0%
BANK5              100      0       0      16        0.0%
BITBANK4           100      0       0      13        0.0%
BANK4              100      0       0      14        0.0%
BITBANK3           100      0       0      11        0.0%
BANK3              100      0       0      12        0.0%
BITBANK2           100      0       0       9        0.0%
BANK2              100      0       0      10        0.0%
BITBANK1           100      0       0       7        0.0%
BANK1              100      0       0       8        0.0%
BITBANK0            A0      0       0       4        0.0%
BANK0               A0      0       0       5        0.0%
BITCOMRAM           5F      0       0       0        0.0%
COMRAM              5F     3E      58       1       92.6%
BITSFR_1             0      0       0      40        0.0%
SFR_1                0      0       0      40        0.0%
BITSFR               0      0       0      40        0.0%
SFR                  0      0       0      40        0.0%
STACK                0      0       A       2        0.0%
NULL                 0      0       0       0        0.0%
ABS                  0      0      58       6        0.0%
DATA                 0      0      62       3        0.0%
CODE                 0      0       0       0        0.0%


Microchip Technology PIC18 Macro Assembler V1.11 build 48931 
Symbol Table                                                                                   Mon Jun 17 04:01:26 2013

                           l20 140C                             l21 140C                             l17 1392  
                           l50 14B0                             l18 13B2                             l51 14BA  
                           l19 13B0                             l60 1280                             l52 14BA  
                           l61 11D2                             l62 11F4                             l63 1226  
                           l55 14D2                             l64 1238                             l65 12A8  
                           l49 14B0                             l58 124C                             l59 11B0  
                           l68 1500                             l93 1514                             u11 1384  
                           u20 139A                             u21 1398                             u30 13A6  
                           u31 13A4                             u40 13D8                             u41 13D4  
                           u50 14B8                             u51 14B6                             u60 12BE  
                           u61 12BC                             u70 1330                             u46 13DA  
                           u71 132E                             u80 1498                             u81 1496  
                           u90 1422                             u91 1420            ___wmul@multiplicand 0017  
                 __CFG_CP0$OFF 000000                   __CFG_CP1$OFF 000000                   __CFG_CP2$OFF 000000  
                 __CFG_CP3$OFF 000000                            l110 1370                            l123 149C  
                          l107 12C8                            l124 149E                            l108 1350  
                          l125 14A0                            l109 1370                            l630 142C  
                          l631 1444                            l632 144C                            l800 1512  
                          l810 1280                            l802 119E                            l820 1324  
                          l804 1238                            l629 141A                            l830 148A  
                          l822 1330                            l814 12AA                            l806 124A  
                          l840 1410                            l832 148E                            l824 1350  
                          l816 12BE                            l808 124C                            l760 139A  
                          l752 1372                            l842 141A                            l834 1490  
                          l826 1480                            l818 12C8                            l682 14D4  
                          l770 13F2                            l762 13A6                            l754 137A  
                          l683 14EA                            l844 1422                            l836 1498  
                          l828 1486                            l684 14EA                            l780 14C4  
                          l772 13FE                            l764 13B2                            l756 138C  
                          l846 142C                            l790 14E4                            l782 14C6  
                          l774 14BC                            l766 13CE                            l758 1392  
                          l848 1432                            l792 14A2                            l784 14CA  
                          l776 14C0                            l768 13E6                            l794 1502  
                          l786 14EC                            l778 14C2                            l796 150E  
                          l788 14D4                            l798 1510                            l898 125E  
                 __CFG_CPB$OFF 000000                            u100 1444                            u101 1442  
                          u247 14DA                   __CFG_CPD$OFF 000000                            _ISR 1008  
         __size_of_WriteTimer0 0012                            prod 000FF3                            wreg 000FE8  
                 __CFG_LVP$OFF 000000                           ?_ISR 0001                           _LATB 000F8A  
                         _LATC 000F8B                           i2l24 1044                           i2l96 119C  
                         i2l97 1106                           i2l98 10B2                           i2l99 10CC  
                         _main 1372                           fsr0h 000FEA                           fsr1h 000FE2  
                         fsr0l 000FE9                           fsr2h 000FDA                           fsr1l 000FE1  
                         fsr2l 000FD9                  __CFG_BORV$220 000000                           pclat 000FFA  
                         prodh 000FF4                           prodl 000FF3                           start 107E  
                __CFG_IESO$OFF 000000           __size_of_mInitMotors 0014                  __CFG_MCLRE$ON 000000  
                        ??_ISR 0007                          ?_main 0001                          _T0CON 000FD5  
                        i2l100 117C                          i2l101 111E                          i2l102 1138  
                        i2l103 117A                          i2l104 119C                          i2l132 1538  
                        i2l850 1082                          i2l860 10AE                          i2l852 108A  
                        i2l838 1528                          i2l870 10F8                          i2l862 10B2  
                        i2l854 1092                          i2l880 1134                          i2l872 110E  
                        i2l864 10BC                          i2l856 109A                          i2l882 1138  
                        i2l874 111A                          i2l890 117C                          i2l866 10C8  
                        i2l858 10A2                          i2l892 1198                          i2l884 115C  
                        i2l876 111E                          i2l868 10CC                          i2l886 1168  
                        i2l878 1128                          i2l894 1040                          i2l888 1174  
                        _TMR0H 000FD7                          _TMR0L 000FD6                          _TRISB 000F93  
                        _TRISC 000F94               ??_servoInterrupt 0005          __size_of_Delay10KTCYx 0018  
                __CFG_WRT0$OFF 000000                  __CFG_WRT1$OFF 000000                  __CFG_WRT2$OFF 000000  
                __CFG_WRT3$OFF 000000                 __CFG_EBTR0$OFF 000000                 __CFG_FCMEN$OFF 000000  
               __CFG_EBTR1$OFF 000000                 __CFG_EBTR2$OFF 000000                 __CFG_EBTR3$OFF 000000  
                        _Servo 0057                  __CFG_WRTB$OFF 000000                  __CFG_WRTC$OFF 000000  
                __CFG_WRTD$OFF 000000                 __CFG_EBTRB$OFF 000000                          main@i 003E  
               __CFG_BOREN$OFF 000000        __size_of_moveRobotSpeed 010C                          tablat 000FF5  
                        status 000FD8                 __CFG_T3CMX$RC0 000000                 __CFG_ICPRT$OFF 000000  
              __initialization 144E                   __end_of_main 1410                   _Delay10KTCYx 14D4  
                       ??_main 0033                  __activetblptr 000000                 __CFG_SDOMX$RC7 000000  
              __CFG_CCP2MX$RC1 000000          __end_of_setServoSpeed 1372                     _OpenTimer0 1480  
               __CFG_WDTEN$OFF 000000                         _OSCCON 000FD3             __size_of_InitRobot 0018  
          moveRobotSpeed@speed 0029                 __CFG_XINST$OFF 000000           setServoSpeed@servoID 001B  
                       ___wmul 1410               OpenTimer0@config 0015                         clear_0 1454  
                 __pdataCOMRAM 003F                         tblptrh 000FF7                         tblptrl 000FF6  
                       tblptru 000FF8           __CFG_LS48MHZ$SYS48X8 000000                     __accesstop 0060  
      __end_of__initialization 147A                __CFG_PBADEN$OFF 000000                 __pcstackCOMRAM 0001  
             __CFG_nPWRTEN$OFF 000000                __CFG_PCLKEN$OFF 000000              __end_of_InitRobot 14D4  
               _moveRobotSpeed 119E                    ?_OpenTimer0 0015              __CFG_PLLSEL$PLL3X 000000  
                      ?___wmul 0015               WriteTimer0@timer 0003                  ??_WriteTimer0 0003  
           __size_of_moveRobot 0016       __size_of_initClockCDRBot 001A                        _OSCCON2 000FD2  
                      i2u11_40 108A                        i2u11_41 1088                        i2u20_40 1128  
                      i2u12_40 1092                        i2u20_41 1126                        i2u12_41 1090  
                      i2u21_40 1134                        i2u13_40 109A                        i2u21_41 1132  
                      i2u13_41 1098                        i2u22_40 1174                        i2u14_40 10A2  
                      i2u22_41 1172                        i2u14_41 10A0                        i2u23_40 1186  
                      i2u15_40 10AE                        i2u23_41 1182                        i2u15_41 10AC  
                      i2u23_46 1188                        i2u16_40 10BC                        i2u16_41 10BA  
                      i2u17_40 10C8                        i2u17_41 10C6                        i2u18_40 110E  
                      i2u18_41 110C                        i2u19_40 111A                        i2u19_41 1118  
                      _OSCTUNE 000F9B         __end_of_moveRobotSpeed 12AA                  ??_mInitMotors 0016  
                      __Hparam 0000                        __Lparam 0000                __size_of___wmul 003E  
              __CFG_STVREN$OFF 000000                        __pcinit 144E             moveRobot@direction 0031  
                      __ramtop 0800            __size_of_OpenTimer0 0022                        __ptext0 1372  
                      __ptext1 14BC                        __ptext2 14EC                        __ptext3 14D4  
                      __ptext4 14A2                        __ptext5 1502                        __ptext6 119E  
                      __ptext7 12AA                        __ptext8 1480                        __ptext9 1410  
                    _T0CONbits 000FD5                   __size_of_ISR 0076            __end_of_WriteTimer0 153A  
              ?_moveRobotSpeed 0027           end_of_initialization 147A              __end_of_moveRobot 1502  
                      postdec1 000FE5                        postdec2 000FDD            __end_of_mInitMotors 1516  
                      postinc0 000FEE                        postinc1 000FE6                        postinc2 000FDE  
                    _PORTBbits 000F81                      _TRISBbits 000F93              ??_initClockCDRBot 0015  
      __size_of_servoInterrupt 011C                     main@prueba 0034         __size_of_setServoSpeed 00C8  
               __end_of___wmul 144E                  __pidataCOMRAM 1516                    _WriteTimer0 1528  
           setServoSpeed@speed 001D            start_initialization 144E                    __end_of_ISR 107E  
                    _InitRobot 14BC                   ??_OpenTimer0 0016                __CFG_nLPBOR$OFF 000000  
                  _mInitMotors 1502                      _Servo_PWM 0049                      _Servo_Idx 0058  
                     ??___wmul 0019             __end_of_OpenTimer0 14A2                    __pbssCOMRAM 0051  
                   ?_InitRobot 0001                  _setServoSpeed 12AA  moveRobotSpeed@speedRightServo 002F  
                    __pintcode 1008                  ?_Delay10KTCYx 0015               ??_moveRobotSpeed 002B  
            WriteTimer0@timer0 0001                    _enableServo 0051                 ?_setServoSpeed 001B  
               _servoInterrupt 1082                 ___wmul@product 0019                       _LATBbits 000F8A  
                     _LATCbits 000F8B                      _moveRobot 14EC                       _RCONbits 000FD0  
             __CFG_WDTPS$32768 000000                 ??_Delay10KTCYx 0016                      main@F7180 003F  
              _initClockCDRBot 14A2              ___wmul@multiplier 0015                      _zeroServo 004D  
            __CFG_CFGPLLEN$OFF 000000               Delay10KTCYx@unit 0015                    ??_InitRobot 0017  
          _Ticks4NextInterrupt 0055         __end_of_servoInterrupt 119E                      copy_data0 146E  
                   ?_moveRobot 0031                       __Hrparam 0000                       __Lrparam 0000  
                 ?_WriteTimer0 0001                ??_setServoSpeed 001F                       __ptext11 1082  
                     __ptext12 1528                       __ptext13 0000                ?_servoInterrupt 0001  
                  _OSCCON2bits 000FD2                  __size_of_main 009E                   ?_mInitMotors 0001  
      __end_of_initClockCDRBot 14BC                     _INTCONbits 000FF2           __end_of_Delay10KTCYx 14EC  
                     intlevel2 0000                    ??_moveRobot 0033           __CFG_CPUDIV$NOCLKDIV 000000  
           __CFG_FOSC$INTOSCIO 000000        moveRobotSpeed@direction 0027   moveRobotSpeed@speedLeftServo 002D  
             ?_initClockCDRBot 0001  
